
chromaKeyRTOS.elf:     file format elf32-littlenios2
chromaKeyRTOS.elf
architecture: nios2:r1, flags 0x00000112:
EXEC_P, HAS_SYMS, D_PAGED
start address 0x00000248

Program Header:
    LOAD off    0x00001000 vaddr 0x00000000 paddr 0x00000000 align 2**12
         filesz 0x00000020 memsz 0x00000020 flags r-x
    LOAD off    0x00001020 vaddr 0x00000020 paddr 0x00000020 align 2**12
         filesz 0x00022d60 memsz 0x00022d60 flags r-x
    LOAD off    0x00023d80 vaddr 0x00022d80 paddr 0x00024d28 align 2**12
         filesz 0x00001fa8 memsz 0x00001fa8 flags rw-
    LOAD off    0x00026cd0 vaddr 0x00026cd0 paddr 0x00026cd0 align 2**12
         filesz 0x00000000 memsz 0x000214b8 flags rw-

Sections:
Idx Name          Size      VMA       LMA       File off  Algn
  0 .entry        00000020  00000000  00000000  00001000  2**5
                  CONTENTS, ALLOC, LOAD, READONLY, CODE
  1 .exceptions   00000228  00000020  00000020  00001020  2**2
                  CONTENTS, ALLOC, LOAD, READONLY, CODE
  2 .text         0002219c  00000248  00000248  00001248  2**2
                  CONTENTS, ALLOC, LOAD, READONLY, CODE
  3 .rodata       0000099c  000223e4  000223e4  000233e4  2**2
                  CONTENTS, ALLOC, LOAD, READONLY, DATA
  4 .rwdata       00001fa8  00022d80  00024d28  00023d80  2**2
                  CONTENTS, ALLOC, LOAD, DATA, SMALL_DATA
  5 .bss          000214b8  00026cd0  00026cd0  00026cd0  2**2
                  ALLOC, SMALL_DATA
  6 .sdram        00000000  00048188  00048188  00025d28  2**0
                  CONTENTS
  7 .flash_controller 00000000  08000000  08000000  00025d28  2**0
                  CONTENTS
  8 .onchip_memory 00000000  08800000  08800000  00025d28  2**0
                  CONTENTS
  9 .comment      00000023  00000000  00000000  00025d28  2**0
                  CONTENTS, READONLY
 10 .debug_aranges 000014c0  00000000  00000000  00025d50  2**3
                  CONTENTS, READONLY, DEBUGGING
 11 .debug_info   0003ec4a  00000000  00000000  00027210  2**0
                  CONTENTS, READONLY, DEBUGGING
 12 .debug_abbrev 0000e3f3  00000000  00000000  00065e5a  2**0
                  CONTENTS, READONLY, DEBUGGING
 13 .debug_line   0001313d  00000000  00000000  0007424d  2**0
                  CONTENTS, READONLY, DEBUGGING
 14 .debug_frame  000048d0  00000000  00000000  0008738c  2**2
                  CONTENTS, READONLY, DEBUGGING
 15 .debug_str    000064b4  00000000  00000000  0008bc5c  2**0
                  CONTENTS, READONLY, DEBUGGING
 16 .debug_loc    0001d4f5  00000000  00000000  00092110  2**0
                  CONTENTS, READONLY, DEBUGGING
 17 .debug_alt_sim_info 00000060  00000000  00000000  000af608  2**2
                  CONTENTS, READONLY, DEBUGGING
 18 .debug_ranges 00001c08  00000000  00000000  000af668  2**3
                  CONTENTS, READONLY, DEBUGGING
 19 .thread_model 00000006  00000000  00000000  000b7d7e  2**0
                  CONTENTS, READONLY
 20 .cpu          00000003  00000000  00000000  000b7d84  2**0
                  CONTENTS, READONLY
 21 .qsys         00000001  00000000  00000000  000b7d87  2**0
                  CONTENTS, READONLY
 22 .simulation_enabled 00000001  00000000  00000000  000b7d88  2**0
                  CONTENTS, READONLY
 23 .sysid_hash   00000004  00000000  00000000  000b7d89  2**0
                  CONTENTS, READONLY
 24 .sysid_base   00000004  00000000  00000000  000b7d8d  2**0
                  CONTENTS, READONLY
 25 .sysid_time   00000004  00000000  00000000  000b7d91  2**0
                  CONTENTS, READONLY
 26 .stderr_dev   00000009  00000000  00000000  000b7d95  2**0
                  CONTENTS, READONLY
 27 .stdin_dev    00000009  00000000  00000000  000b7d9e  2**0
                  CONTENTS, READONLY
 28 .stdout_dev   00000009  00000000  00000000  000b7da7  2**0
                  CONTENTS, READONLY
 29 .sopc_system_name 0000000b  00000000  00000000  000b7db0  2**0
                  CONTENTS, READONLY
 30 .quartus_project_dir 00000039  00000000  00000000  000b7dbb  2**0
                  CONTENTS, READONLY
 31 .jdi          00003a07  00000000  00000000  000b7df4  2**0
                  CONTENTS, READONLY
 32 .sopcinfo     0011c3fa  00000000  00000000  000bb7fb  2**0
                  CONTENTS, READONLY
SYMBOL TABLE:
00000000 l    d  .entry	00000000 .entry
00000020 l    d  .exceptions	00000000 .exceptions
00000248 l    d  .text	00000000 .text
000223e4 l    d  .rodata	00000000 .rodata
00022d80 l    d  .rwdata	00000000 .rwdata
00026cd0 l    d  .bss	00000000 .bss
00048188 l    d  .sdram	00000000 .sdram
08000000 l    d  .flash_controller	00000000 .flash_controller
08800000 l    d  .onchip_memory	00000000 .onchip_memory
00000000 l    d  .comment	00000000 .comment
00000000 l    d  .debug_aranges	00000000 .debug_aranges
00000000 l    d  .debug_info	00000000 .debug_info
00000000 l    d  .debug_abbrev	00000000 .debug_abbrev
00000000 l    d  .debug_line	00000000 .debug_line
00000000 l    d  .debug_frame	00000000 .debug_frame
00000000 l    d  .debug_str	00000000 .debug_str
00000000 l    d  .debug_loc	00000000 .debug_loc
00000000 l    d  .debug_alt_sim_info	00000000 .debug_alt_sim_info
00000000 l    d  .debug_ranges	00000000 .debug_ranges
00000000 l    df *ABS*	00000000 ../chromaKeyRTOS_bsp//obj/HAL/src/crt0.o
00000290 l       .text	00000000 alt_after_alt_main
00000000 l    df *ABS*	00000000 alt_irq_handler.c
00000000 l    df *ABS*	00000000 alt_instruction_exception_entry.c
00000000 l    df *ABS*	00000000 Chs_Comm.c
00000000 l    df *ABS*	00000000 MTL.c
00000000 l    df *ABS*	00000000 alt_ucosii_simple_error_check.c
00000000 l    df *ABS*	00000000 app_config.c
00000000 l    df *ABS*	00000000 functions.c
00000000 l    df *ABS*	00000000 isr.c
00000000 l    df *ABS*	00000000 lcd.c
00000000 l    df *ABS*	00000000 ledg.c
00000000 l    df *ABS*	00000000 task_config.c
00000000 l    df *ABS*	00000000 exit.c
00000000 l    df *ABS*	00000000 fclose.c
00000000 l    df *ABS*	00000000 fflush.c
00000000 l    df *ABS*	00000000 findfp.c
00001894 l     F .text	00000008 __fp_unlock
000018a8 l     F .text	0000019c __sinit.part.1
00001a44 l     F .text	00000008 __fp_lock
00000000 l    df *ABS*	00000000 fopen.c
00000000 l    df *ABS*	00000000 fprintf.c
00000000 l    df *ABS*	00000000 mallocr.c
00000000 l    df *ABS*	00000000 fseek.c
00000000 l    df *ABS*	00000000 fseeko.c
00000000 l    df *ABS*	00000000 fstatr.c
00000000 l    df *ABS*	00000000 fwalk.c
00000000 l    df *ABS*	00000000 fwrite.c
00000000 l    df *ABS*	00000000 getc.c
00000000 l    df *ABS*	00000000 impure.c
00022d80 l     O .rwdata	00000424 impure_data
00000000 l    df *ABS*	00000000 int_errno.c
00000000 l    df *ABS*	00000000 makebuf.c
00000000 l    df *ABS*	00000000 mallocr.c
00000000 l    df *ABS*	00000000 memset.c
00000000 l    df *ABS*	00000000 openr.c
00000000 l    df *ABS*	00000000 puts.c
00000000 l    df *ABS*	00000000 refill.c
00003640 l     F .text	0000001c lflush
00000000 l    df *ABS*	00000000 rget.c
00000000 l    df *ABS*	00000000 sbrkr.c
00000000 l    df *ABS*	00000000 sprintf.c
00000000 l    df *ABS*	00000000 stdio.c
00000000 l    df *ABS*	00000000 strlen.c
00000000 l    df *ABS*	00000000 vfprintf.c
00022806 l     O .rodata	00000010 zeroes.4389
00022816 l     O .rodata	00000010 blanks.4388
00000000 l    df *ABS*	00000000 vfprintf.c
00022826 l     O .rodata	00000010 zeroes.4404
00007f90 l     F .text	000000bc __sbprintf
00022836 l     O .rodata	00000010 blanks.4403
00000000 l    df *ABS*	00000000 writer.c
00000000 l    df *ABS*	00000000 wsetup.c
00000000 l    df *ABS*	00000000 closer.c
00000000 l    df *ABS*	00000000 __call_atexit.c
00000000 l    df *ABS*	00000000 dtoa.c
000083d4 l     F .text	00000200 quorem
00000000 l    df *ABS*	00000000 flags.c
00000000 l    df *ABS*	00000000 fvwrite.c
00000000 l    df *ABS*	00000000 isattyr.c
00000000 l    df *ABS*	00000000 locale.c
000235cc l     O .rwdata	00000020 lc_ctype_charset
000235ac l     O .rwdata	00000020 lc_message_charset
000235ec l     O .rwdata	00000038 lconv
00000000 l    df *ABS*	00000000 lseekr.c
00000000 l    df *ABS*	00000000 memchr.c
00000000 l    df *ABS*	00000000 memcpy.c
00000000 l    df *ABS*	00000000 memmove.c
00000000 l    df *ABS*	00000000 mprec.c
00022864 l     O .rodata	0000000c p05.2768
00000000 l    df *ABS*	00000000 readr.c
00000000 l    df *ABS*	00000000 mallocr.c
00000000 l    df *ABS*	00000000 s_fpclassify.c
00000000 l    df *ABS*	00000000 strcmp.c
00000000 l    df *ABS*	00000000 vfprintf.c
00022998 l     O .rodata	00000010 blanks.4332
00022988 l     O .rodata	00000010 zeroes.4333
00000000 l    df *ABS*	00000000 vfprintf.c
0000d1f8 l     F .text	000000fc __sprint_r.part.0
000229b8 l     O .rodata	00000010 blanks.4348
000229a8 l     O .rodata	00000010 zeroes.4349
0000e784 l     F .text	000000bc __sbprintf
00000000 l    df *ABS*	00000000 mallocr.c
00000000 l    df *ABS*	00000000 fputwc.c
00000000 l    df *ABS*	00000000 wbuf.c
00000000 l    df *ABS*	00000000 wcrtomb.c
00000000 l    df *ABS*	00000000 wctomb_r.c
00000000 l    df *ABS*	00000000 libgcc2.c
00000000 l    df *ABS*	00000000 libgcc2.c
00000000 l    df *ABS*	00000000 lib2-divmod.c
00000000 l    df *ABS*	00000000 adddf3.c
00000000 l    df *ABS*	00000000 divdf3.c
00000000 l    df *ABS*	00000000 eqdf2.c
00000000 l    df *ABS*	00000000 gedf2.c
00000000 l    df *ABS*	00000000 ledf2.c
00000000 l    df *ABS*	00000000 muldf3.c
00000000 l    df *ABS*	00000000 subdf3.c
00000000 l    df *ABS*	00000000 fixdfsi.c
00000000 l    df *ABS*	00000000 floatsidf.c
00000000 l    df *ABS*	00000000 floatunsidf.c
00000000 l    df *ABS*	00000000 libgcc2.c
00000000 l    df *ABS*	00000000 libgcc2.c
00000000 l    df *ABS*	00000000 alt_close.c
00012118 l     F .text	0000003c alt_get_errno
00000000 l    df *ABS*	00000000 alt_dev.c
00012224 l     F .text	0000002c alt_dev_null_write
00000000 l    df *ABS*	00000000 alt_errno.c
00000000 l    df *ABS*	00000000 alt_exit.c
00000000 l    df *ABS*	00000000 alt_fstat.c
00012284 l     F .text	0000003c alt_get_errno
00000000 l    df *ABS*	00000000 alt_irq_register.c
00000000 l    df *ABS*	00000000 alt_irq_vars.c
00000000 l    df *ABS*	00000000 alt_isatty.c
000124f0 l     F .text	0000003c alt_get_errno
00000000 l    df *ABS*	00000000 alt_load.c
000125d0 l     F .text	00000068 alt_load_section
00000000 l    df *ABS*	00000000 alt_lseek.c
000126bc l     F .text	0000003c alt_get_errno
00000000 l    df *ABS*	00000000 alt_main.c
00000000 l    df *ABS*	00000000 alt_open.c
00012888 l     F .text	0000003c alt_get_errno
000128c4 l     F .text	000000c4 alt_file_locked
00000000 l    df *ABS*	00000000 alt_read.c
00012adc l     F .text	0000003c alt_get_errno
00000000 l    df *ABS*	00000000 alt_release_fd.c
00000000 l    df *ABS*	00000000 alt_sbrk.c
00024c98 l     O .rwdata	00000004 heap_end
00000000 l    df *ABS*	00000000 alt_write.c
00012d28 l     F .text	0000003c alt_get_errno
00000000 l    df *ABS*	00000000 alt_env_lock.c
00024c9c l     O .rwdata	00000004 lockid
00026d44 l     O .bss	00000004 locks
00000000 l    df *ABS*	00000000 alt_malloc_lock.c
00024ca0 l     O .rwdata	00000004 lockid
00026d4c l     O .bss	00000004 locks
00000000 l    df *ABS*	00000000 os_core.c
00014758 l     F .text	00000048 OS_InitMisc
000147a0 l     F .text	0000006c OS_InitRdyList
0001490c l     F .text	000000e4 OS_InitTCBList
00014678 l     F .text	000000e0 OS_InitEventList
0001480c l     F .text	00000080 OS_InitTaskIdle
0001488c l     F .text	00000080 OS_InitTaskStat
00014b7c l     F .text	00000074 OS_SchedNew
00000000 l    df *ABS*	00000000 os_dbg.c
00000000 l    df *ABS*	00000000 os_flag.c
0001688c l     F .text	000000f4 OS_FlagTaskRdy
0001664c l     F .text	00000160 OS_FlagBlock
00000000 l    df *ABS*	00000000 os_mem.c
00000000 l    df *ABS*	00000000 os_mutex.c
00018100 l     F .text	00000190 OSMutex_RdyAtPrio
00000000 l    df *ABS*	00000000 os_q.c
00000000 l    df *ABS*	00000000 os_sem.c
00000000 l    df *ABS*	00000000 os_task.c
00000000 l    df *ABS*	00000000 os_time.c
00000000 l    df *ABS*	00000000 alt_sys_init.c
0001ba48 l     F .text	00000034 alt_dev_reg
000237cc l     O .rwdata	000000dc flash_controller
000238a8 l     O .rwdata	0000106c jtag_uart
00024914 l     O .rwdata	00000030 altera_ro_zipfs
00024944 l     O .rwdata	00000030 audio_config
00024974 l     O .rwdata	00000030 audio
000249a4 l     O .rwdata	0000002c char_lcd
000249d0 l     O .rwdata	0000002c green_leds
000249fc l     O .rwdata	0000002c HEX3_HEX0
00024a28 l     O .rwdata	0000002c HEX7_HEX4
00024a54 l     O .rwdata	0000002c pushbuttons
00024a80 l     O .rwdata	0000002c red_leds
00024aac l     O .rwdata	0000002c switches
00024ad8 l     O .rwdata	00000038 ps2_key
00024b10 l     O .rwdata	00000038 ps2_mouse
00024b48 l     O .rwdata	0000002c serial_port
00024b74 l     O .rwdata	00000048 mtl_char_buffer
00024bbc l     O .rwdata	00000054 mtl_pixel_buffer_dma
00024c10 l     O .rwdata	0000002c SD_Card
00000000 l    df *ABS*	00000000 altera_avalon_cfi_flash.c
0001bea4 l     F .text	00000034 alt_flash_device_register
00000000 l    df *ABS*	00000000 altera_avalon_cfi_flash_table.c
0001ccf4 l     F .text	00000080 alt_read_16bit_query_entry
00000000 l    df *ABS*	00000000 altera_avalon_jtag_uart_fd.c
00000000 l    df *ABS*	00000000 altera_avalon_jtag_uart_init.c
0001de24 l     F .text	000002a8 altera_avalon_jtag_uart_irq
0001e0cc l     F .text	00000104 altera_avalon_jtag_uart_timeout
00000000 l    df *ABS*	00000000 altera_avalon_jtag_uart_ioctl.c
00000000 l    df *ABS*	00000000 altera_avalon_jtag_uart_read.c
00000000 l    df *ABS*	00000000 altera_avalon_jtag_uart_write.c
00000000 l    df *ABS*	00000000 altera_avalon_timer_sc.c
0001e8a8 l     F .text	0000007c alt_avalon_timer_sc_irq
00000000 l    df *ABS*	00000000 altera_ro_zipfs.c
0001e998 l     F .text	00000074 read_word
0001ea0c l     F .text	00000054 read_word_inc
0001ea60 l     F .text	00000044 read_half_word
0001eaa4 l     F .text	00000054 read_half_word_inc
0001eaf8 l     F .text	00000120 check_file_header
0001ed4c l     F .text	000000a4 check_directory_table
0001edf0 l     F .text	000000ac find_directory_entry
0001ee9c l     F .text	00000178 find_file_entry_by_name
0001f014 l     F .text	0000019c find_file_entry
00000000 l    df *ABS*	00000000 altera_up_avalon_character_lcd.c
00000000 l    df *ABS*	00000000 altera_up_avalon_ps2.c
00000000 l    df *ABS*	00000000 altera_up_avalon_rs232.c
00000000 l    df *ABS*	00000000 altera_up_avalon_video_character_buffer_with_dma.c
00000000 l    df *ABS*	00000000 alt_alarm_start.c
00000000 l    df *ABS*	00000000 alt_dcache_flush.c
00000000 l    df *ABS*	00000000 alt_dcache_flush_all.c
00000000 l    df *ABS*	00000000 alt_dev_llist_insert.c
00020934 l     F .text	0000003c alt_get_errno
00000000 l    df *ABS*	00000000 alt_do_ctors.c
00000000 l    df *ABS*	00000000 alt_do_dtors.c
00000000 l    df *ABS*	00000000 alt_find_dev.c
00000000 l    df *ABS*	00000000 alt_find_file.c
00000000 l    df *ABS*	00000000 alt_flash_dev.c
00000000 l    df *ABS*	00000000 alt_fs_reg.c
00000000 l    df *ABS*	00000000 alt_get_fd.c
00000000 l    df *ABS*	00000000 alt_icache_flush_all.c
00000000 l    df *ABS*	00000000 alt_io_redirect.c
00020eb8 l     F .text	000000c4 alt_open_fd
00000000 l    df *ABS*	00000000 alt_tick.c
00000000 l    df *ABS*	00000000 altera_nios2_gen2_irq.c
00000000 l    df *ABS*	00000000 os_cpu_a.o
00000040 l       *ABS*	00000000 OSCtxSw_SWITCH_PC
00000000 l    df *ABS*	00000000 os_cpu_c.c
00000014 l       *ABS*	00000000 OSTCBNext_OFFSET
00000032 l       *ABS*	00000000 OSTCBPrio_OFFSET
00000000 l       *ABS*	00000000 OSTCBStkPtr_OFFSET
00000000 l    df *ABS*	00000000 altera_avalon_cfi_flash_amd.c
000218ac l     F .text	000000cc alt_write_word_amd
00021790 l     F .text	0000011c alt_wait_for_command_to_complete_amd
00000000 l    df *ABS*	00000000 altera_avalon_cfi_flash_intel.c
00021b84 l     F .text	0000017c alt_unlock_block_intel
00021d00 l     F .text	000000d4 alt_write_word_intel
00000000 l    df *ABS*	00000000 alt_icache_flush.c
00000000 l    df *ABS*	00000000 alt_usleep.c
00000000 l    df *ABS*	00000000 alt_busy_sleep.c
00000000 l    df *ABS*	00000000 atexit.c
00000000 l    df *ABS*	00000000 memcmp.c
00000000 l    df *ABS*	00000000 strncmp.c
00000000 l    df *ABS*	00000000 __atexit.c
00026dac g     O .bss	00000004 alt_instruction_exception_handler
00024c48 g     O .rwdata	00000004 SW_switch_ptr
0000b560 g     F .text	00000074 _mprec_log10
00026cf8 g     O .bss	00000004 getsem_task1_got_sem
00024cee g     O .rwdata	00000002 OSTaskNameSize
0000b64c g     F .text	0000008c __any_on
0000a1c4 g     F .text	00000054 _isatty_r
00022870 g     O .rodata	00000028 __mprec_tinytens
000127cc g     F .text	000000bc alt_main
0000356c g     F .text	000000c0 _puts_r
0001c7b8 g     F .text	00000040 alt_read_query_entry_32bit
0001fc74 g     F .text	00000060 alt_up_ps2_disable_read_interrupt
00048088 g     O .bss	00000100 alt_irq
0000a2f4 g     F .text	00000060 _lseek_r
000170ac g     F .text	000000cc OS_MemInit
0001bf68 g     F .text	000002a8 alt_flash_cfi_write
00024d28 g       *ABS*	00000000 __flash_rwdata_start
0001b9e8 g     F .text	00000060 OSTimeSet
0001f5a8 g     F .text	00000040 alt_up_character_lcd_send_cmd
00009c5c g     F .text	000000ac __sflags
00010c44 g     F .text	00000088 .hidden __eqdf2
00026dd8 g     O .bss	00002000 send_task_stk
000133cc g     F .text	00000610 OSEventPendMulti
00028dd8 g     O .bss	00002000 getsem_task1_stk
00048188 g       *ABS*	00000000 __alt_heap_start
000213ec g     F .text	00000024 OSTaskCreateHook
00026cd0 g     O .bss	00000004 msgqueue
00024cc6 g     O .rwdata	00000002 OSMboxEn
00013a34 g     F .text	0000004c OSIntEnter
0000ec64 g     F .text	0000009c _wcrtomb_r
00026cec g     O .bss	00000004 number_of_messages_sent
00003aa8 g     F .text	0000005c __sseek
00001be4 g     F .text	00000010 __sinit
000205f0 g     F .text	000000fc alt_up_char_buffer_string
0000eb0c g     F .text	00000140 __swbuf_r
0001fa8c g     F .text	00000034 read_CE_bit
00024cd6 g     O .rwdata	00000002 OSQEn
0000a218 g     F .text	0000007c _setlocale_r
00001a4c g     F .text	00000068 __sfmoreglue
000130a0 g     F .text	000000cc __malloc_unlock
00021454 g     F .text	00000020 OSTaskStatHook
0001fe14 g     F .text	0000009c alt_up_ps2_read_data_byte_timeout
00020308 g     F .text	00000090 alt_up_rs232_read_fd
00001130 g     F .text	00000088 read_switches
00000f9c g     F .text	00000074 ledg_OFF
00026d54 g     O .bss	00000001 OSLockNesting
00000dbc g     F .text	00000060 LCD_cursor
00024d14 g     O .rwdata	00000002 OSDataSize
00026d55 g     O .bss	00000001 OSRunning
00020524 g     F .text	000000cc alt_up_char_buffer_draw
0000a580 g     F .text	0000015c memmove
00021494 g     F .text	00000020 OSInitHookBegin
00024d0c g     O .rwdata	00000002 OSTmrSize
00001bcc g     F .text	00000018 _cleanup
0000a6dc g     F .text	000000a8 _Balloc
0002add8 g     O .bss	00002000 read_pushbuttons_stk
0002cdd8 g     O .bss	00002000 print_status_task_stk
00026d58 g     O .bss	00000004 OSIdleCtr
00010ccc g     F .text	000000dc .hidden __gtdf2
00026cf4 g     O .bss	00000004 number_of_messages_received_task2
0002119c g     F .text	00000024 altera_nios2_gen2_irq_init
0002126c g       .text	00000000 OSStartTsk
0001f534 g     F .text	00000074 get_DDRAM_addr
00014eac g     F .text	000002d4 OS_TCBInit
0001c950 g     F .text	00000050 alt_write_flash_command_32bit_device_16bit_mode
00000000 g     F .entry	0000001c __reset
00024d12 g     O .rwdata	00000002 OSTmrWheelTblSize
00000020 g       *ABS*	00000000 __flash_exceptions_start
00024cb2 g     O .rwdata	00000002 OSEventSize
0002edd8 g     O .bss	00002000 read_switches_stk
00026d5c g     O .bss	00000001 OSPrioHighRdy
00002640 g     F .text	0000005c _fstat_r
00021410 g     F .text	00000024 OSTaskDelHook
0001c45c g     F .text	000002e0 alt_flash_program_block
00026d14 g     O .bss	00000004 errno
000038a4 g     F .text	00000014 __srget
00003a24 g     F .text	00000008 __seofread
0002124c g       .text	00000000 OSStartHighRdy
0001a490 g     F .text	000001e4 OSTaskCreateExt
0000bfbc g     F .text	0000123c ___svfiprintf_internal_r
00016194 g     F .text	00000060 OSFlagPendGetFlagsRdy
00024cf2 g     O .rwdata	00000002 OSTaskStatStkSize
00015310 g     F .text	00000308 OSFlagAccept
000187fc g     F .text	000000b8 OSQFlush
00018290 g     F .text	00000140 OSQAccept
00026d3c g     O .bss	00000004 alt_argv
0002cc3c g       *ABS*	00000000 _gp
00021f00 g     F .text	00000114 usleep
00024c4c g     O .rwdata	00000004 LCD_display_ptr
0001a2e4 g     F .text	000001ac OSTaskCreate
00019df4 g     F .text	000004f0 OSTaskChangePrio
00026d50 g     O .bss	00000004 alt_heapsem
00015180 g     F .text	00000190 OSDebugInit
0001a674 g     F .text	00000344 OSTaskDel
00017178 g     F .text	000001a4 OSMutexAccept
0002364c g     O .rwdata	00000180 alt_fd_list
00044e64 g     O .bss	00000370 OSFlagTbl
00002924 g     F .text	00000070 _getc_r
00002994 g     F .text	00000088 getc
000009a4 g     F .text	000000ec Init_App
00014458 g     F .text	000000b8 OS_EventTaskRemove
00020ad4 g     F .text	00000090 alt_find_dev
0000a438 g     F .text	00000148 memcpy
00024cdc g     O .rwdata	00000002 OSRdyTblSize
0001f750 g     F .text	00000050 alt_up_character_lcd_write_fd
000206ec g     F .text	0000005c alt_up_char_buffer_clear
0000189c g     F .text	0000000c _cleanup_r
00011f30 g     F .text	000000dc .hidden __floatsidf
00020d28 g     F .text	00000080 alt_fs_reg
00020f7c g     F .text	0000007c alt_io_redirect
00010da8 g     F .text	000000f4 .hidden __ltdf2
000223e4 g       *ABS*	00000000 __DTOR_END__
00020294 g     F .text	00000074 alt_up_rs232_read_data
0000362c g     F .text	00000014 puts
00021e64 g     F .text	0000009c alt_exception_cause_generated_bad_addr
0001f1b0 g     F .text	00000090 alt_ro_zipfs_open
0001316c g     F .text	00000120 OSEventNameGet
00024cc0 g     O .rwdata	00000002 OSFlagMax
0000bc9c g     F .text	00000074 __fpclassifyd
00024c3c g     O .rwdata	00000004 red_LED_ptr
000177e0 g     F .text	0000059c OSMutexPend
0000b4bc g     F .text	000000a4 __ratio
00013a80 g     F .text	000000f8 OSIntExit
08000000 g       *ABS*	00000000 __alt_mem_flash_controller
0000e768 g     F .text	0000001c __vfiprintf_internal
00024cfa g     O .rwdata	00000002 OSTCBSize
00026d5d g     O .bss	00000001 OSPrioCur
0001e328 g     F .text	000002bc altera_avalon_jtag_uart_read
00000e1c g     F .text	00000060 LCD_text
0000f9f4 g     F .text	00000064 .hidden __udivsi3
0001252c g     F .text	000000a4 isatty
00024ce0 g     O .rwdata	00000002 OSStkWidth
000228c0 g     O .rodata	000000c8 __mprec_tens
00024cd4 g     O .rwdata	00000002 OSPtrSize
00024c5c g     O .rwdata	00000004 image
0000a294 g     F .text	0000000c __locale_charset
00024cb4 g     O .rwdata	00000002 OSEventTblSize
000211c0 g       .text	00000000 OSCtxSw
00021dd4 g     F .text	00000090 alt_icache_flush
00000400 g     F .text	00000100 borra_lineas_pantalla
00026d20 g     O .bss	00000004 __malloc_top_pad
00026d60 g     O .bss	00000004 OSTCBList
00026d30 g     O .bss	00000004 alt_fd_list_lock
00024c74 g     O .rwdata	00000004 __mb_cur_max
0000a2c4 g     F .text	0000000c _localeconv_r
00030dd8 g     O .bss	00002000 getmutex_task2_stk
0000aae8 g     F .text	0000003c __i2b
00009d08 g     F .text	000004bc __sfvwrite_r
000451d4 g     O .bss	00000c30 OSMemTbl
00026d64 g     O .bss	00000001 OSTickStepState
000038b8 g     F .text	00000054 _sbrk_r
00021978 g     F .text	00000080 alt_program_intel
00024cd8 g     O .rwdata	00000002 OSQMax
000174e4 g     F .text	000002fc OSMutexDel
00045e04 g     O .bss	00000800 OSTaskStatStk
00016ce8 g     F .text	000000f0 OSMemNameGet
00024cb8 g     O .rwdata	00000002 OSFlagEn
0000b6d8 g     F .text	00000060 _read_r
00024cfe g     O .rwdata	00000002 OSTimeTickHookEn
00020874 g     F .text	00000078 alt_dcache_flush
00018cac g     F .text	00000168 OSQPost
00016980 g     F .text	000000a4 OS_FlagUnlink
00024c8c g     O .rwdata	00000004 alt_max_fd
00020210 g     F .text	00000044 alt_up_rs232_check_parity
0001c73c g     F .text	0000003c alt_read_query_entry_8bit
00014a44 g     F .text	00000068 OS_MemCopy
00014aac g     F .text	000000d0 OS_Sched
000014e8 g     F .text	000000f0 _fclose_r
00016bf8 g     F .text	000000f0 OSMemGet
0001aca0 g     F .text	000001b4 OSTaskNameSet
0001fac0 g     F .text	00000030 read_num_bytes_available
000219f8 g     F .text	0000018c alt_erase_block_intel
00001864 g     F .text	00000030 fflush
00026d1c g     O .bss	00000004 __malloc_max_sbrked_mem
00026d68 g     O .bss	00000004 OSCtxSwCtr
00021474 g     F .text	00000020 OSTimeTickHook
00012370 g     F .text	00000180 alt_irq_register
00024cc2 g     O .rwdata	00000002 OSFlagNameSize
0001fa28 g     F .text	00000034 read_RI_bit
00014510 g     F .text	00000100 OS_EventTaskRemoveMulti
0000fab0 g     F .text	000008ac .hidden __adddf3
00014308 g     F .text	00000150 OS_EventTaskWaitMulti
0000b264 g     F .text	0000010c __b2d
00024cda g     O .rwdata	00000002 OSQSize
0000f3c4 g     F .text	00000538 .hidden __umoddi3
000126f8 g     F .text	000000d4 lseek
0001975c g     F .text	0000020c OSSemPend
00024c64 g     O .rwdata	00000004 _global_impure_ptr
00024c58 g     O .rwdata	00000004 chromaProcessor_ptr
0000b738 g     F .text	00000564 _realloc_r
00024cc4 g     O .rwdata	00000002 OSLowestPrio
00048188 g       *ABS*	00000000 __bss_end
000214f4 g     F .text	00000024 OSTCBInitHook
00024d0a g     O .rwdata	00000002 OSTmrCfgTicksPerSec
00021094 g     F .text	00000108 alt_tick
0000ee4c g     F .text	00000578 .hidden __udivdi3
0000ea68 g     F .text	00000024 _fputwc_r
00024cac g     O .rwdata	00000002 OSEventEn
00022898 g     O .rodata	00000028 __mprec_bigtens
0000a8cc g     F .text	00000104 __s2b
00024d06 g     O .rwdata	00000002 OSTmrCfgNameSize
0001200c g     F .text	000000a8 .hidden __floatunsidf
0000afa4 g     F .text	00000060 __mcmp
0001fb24 g     F .text	0000002c read_data_byte
00001c04 g     F .text	00000018 __fp_lock_all
000167ac g     F .text	000000e0 OS_FlagInit
00020ff8 g     F .text	0000009c alt_alarm_stop
00024c44 g     O .rwdata	00000004 KEY_ptr
0001fa5c g     F .text	00000030 read_RE_bit
00024ce8 g     O .rwdata	00000002 OSTaskIdleStkSize
00026d34 g     O .bss	00000004 alt_irq_active
00019394 g     F .text	000000b0 OSSemAccept
000021e0 g     F .text	00000444 _fseeko_r
00016eec g     F .text	000000d8 OSMemPut
0001f328 g     F .text	0000013c alt_ro_zipfs_seek
00016a24 g     F .text	000001d4 OSMemCreate
00026d6c g     O .bss	00000004 OSIdleCtrMax
000000fc g     F .exceptions	000000d8 alt_irq_handler
00023624 g     O .rwdata	00000028 alt_dev_null
00024cfc g     O .rwdata	00000002 OSTicksPerSec
00024c54 g     O .rwdata	00000004 character_buffer
0001f9f0 g     F .text	00000038 alt_up_character_lcd_cursor_blink_on
0001cc58 g     F .text	0000009c alt_set_flash_algorithm_func
00032dd8 g     O .bss	00000078 msgqueueTbl
000211c0 g       .text	00000000 OSIntCtxSw
0001fcd4 g     F .text	00000074 alt_up_ps2_write_data_byte
000208ec g     F .text	00000048 alt_dcache_flush_all
0000a9d0 g     F .text	00000068 __hi0bits
00032e50 g     O .bss	00002000 getsem_task4_stk
00011eb0 g     F .text	00000080 .hidden __fixdfsi
0001c7f8 g     F .text	00000044 alt_write_flash_command_8bit_device_8bit_mode
00026d70 g     O .bss	00000004 OSTCBFreeList
00024d28 g       *ABS*	00000000 __ram_rwdata_end
00019968 g     F .text	0000016c OSSemPendAbort
08800000 g       *ABS*	00000000 __alt_mem_onchip_memory
00024c84 g     O .rwdata	00000008 alt_dev_list
00012d64 g     F .text	000000f8 write
00024d00 g     O .rwdata	00000002 OSVersionNbr
00034e50 g     O .bss	00002000 getsem_task2_stk
00001310 g     F .text	00000058 TaskInit
00022d80 g       *ABS*	00000000 __ram_rodata_end
000122c0 g     F .text	000000b0 fstat
00001d68 g     F .text	00000024 fprintf
00020398 g     F .text	00000094 alt_up_rs232_write_fd
00010da8 g     F .text	000000f4 .hidden __ledf2
0001daac g     F .text	000000d8 alt_check_primary_table
00024ca8 g     O .rwdata	00000004 OSEndiannessTest
0000ad1c g     F .text	00000140 __pow5mult
0000d30c g     F .text	0000145c ___vfiprintf_internal_r
00026d2c g     O .bss	00000004 __nlocale_changed
0000fa58 g     F .text	00000058 .hidden __umodsi3
0001c29c g     F .text	00000064 alt_flash_cfi_read
0001c9f0 g     F .text	00000038 alt_write_native_8bit
00000374 g     F .text	0000008c MTL_text
00024cba g     O .rwdata	00000002 OSFlagGrpSize
00000cf8 g     F .text	000000c4 switches_isr
00048188 g       *ABS*	00000000 end
00020004 g     F .text	00000098 alt_up_ps2_write_fd
0001c83c g     F .text	00000078 alt_write_flash_command_16bit_device_8bit_mode
00000ea8 g     F .text	00000084 LCD_thresholds
00002624 g     F .text	0000001c fseeko
00026d10 g     O .bss	00000001 highest
00020468 g     F .text	00000080 alt_up_char_buffer_init
000021c4 g     F .text	0000001c fseek
0001cd74 g     F .text	000005c8 alt_read_cfi_table
00001010 g     F .text	00000070 blinky_ledg
0001dce8 g     F .text	0000013c altera_avalon_jtag_uart_init
00014d14 g     F .text	000000cc OS_TaskStat
000001d4 g     F .exceptions	00000074 alt_instruction_exception_entry
000223e4 g       *ABS*	00000000 __CTOR_LIST__
08000000 g       *ABS*	00000000 __alt_stack_pointer
0001e924 g     F .text	00000074 alt_avalon_timer_sc_init
000120b4 g     F .text	00000064 .hidden __clzsi2
0001e5e4 g     F .text	000002c4 altera_avalon_jtag_uart_write
00036e50 g     O .bss	00002000 getsem_task3_stk
0001bed8 g     F .text	00000090 alt_flash_cfi_init
00001bf4 g     F .text	00000004 __sfp_lock_acquire
0000a354 g     F .text	000000e4 memchr
000149f0 g     F .text	00000054 OS_MemClr
0001f65c g     F .text	0000007c alt_up_character_lcd_write
00005d7c g     F .text	000021f8 ___vfprintf_internal_r
00021290 g     F .text	0000015c OSTaskStkInit
0000390c g     F .text	00000058 _sprintf_r
00001eb0 g     F .text	00000310 _free_r
0000a2a0 g     F .text	00000010 __locale_mb_cur_max
00014060 g     F .text	00000198 OS_EventTaskRdy
00003830 g     F .text	00000074 __srget_r
00008254 g     F .text	00000180 __call_exitprocs
00026d74 g     O .bss	00000001 OSCPUUsage
00026d28 g     O .bss	00000004 __mlocale_changed
00000c00 g     F .text	000000f8 pushbutton_isr
00024c6c g     O .rwdata	00000004 __malloc_sbrk_base
00000248 g     F .text	0000004c _start
00026da4 g     O .bss	00000004 _alt_tick_rate
000188b4 g     F .text	0000028c OSQPend
0001b560 g     F .text	00000104 OSTimeDly
0000ae5c g     F .text	00000148 __lshift
00026da8 g     O .bss	00000004 _alt_nticks
00012b18 g     F .text	000000fc read
0001bab4 g     F .text	000003f0 alt_sys_init
0001f8a0 g     F .text	0000008c alt_up_character_lcd_shift_display
0000bdec g     F .text	000001d0 __ssprint_r
0000350c g     F .text	00000060 _open_r
000222cc g     F .text	00000118 __register_exitproc
00026d75 g     O .bss	00000001 OSTaskCtr
000221fc g     F .text	000000d0 strncmp
0001ff20 g     F .text	00000058 alt_up_ps2_clear_fifo
000201d4 g     F .text	0000003c alt_up_rs232_get_available_space_in_write_FIFO
0001c778 g     F .text	00000040 alt_read_query_entry_16bit
0001b664 g     F .text	00000154 OSTimeDlyHMSM
0000ab24 g     F .text	000001f8 __multiply
0001f92c g     F .text	0000008c alt_up_character_lcd_erase_pos
0001e1d0 g     F .text	00000068 altera_avalon_jtag_uart_close
00022d80 g       *ABS*	00000000 __ram_rwdata_start
00026d0c g     O .bss	00000004 getmutex_task2_got_sem
000223e4 g       *ABS*	00000000 __ram_rodata_start
00026db0 g     O .bss	00000028 __malloc_current_mallinfo
00024cae g     O .rwdata	00000002 OSEventMax
0001ca94 g     F .text	000001c4 alt_set_flash_width_func
0000b370 g     F .text	0000014c __d2b
00019ad4 g     F .text	00000110 OSSemPost
00013c04 g     F .text	000000dc OSSchedUnlock
0001db84 g     F .text	00000060 altera_avalon_jtag_uart_read_fd
00020da8 g     F .text	000000dc alt_get_fd
00026d78 g     O .bss	00000004 OSMemFreeList
00013d50 g     F .text	000000b0 OSStatInit
00022014 g     F .text	00000158 alt_busy_sleep
00016588 g     F .text	000000c4 OSFlagQuery
00024ce4 g     O .rwdata	00000002 OSTaskCreateExtEn
00008200 g     F .text	00000054 _close_r
00021580 g     F .text	00000210 alt_erase_block_amd
00001368 g     F .text	0000007c CreateTasks
00022180 g     F .text	0000007c memcmp
00014040 g     F .text	00000020 OS_Dummy
0001dc44 g     F .text	00000050 altera_avalon_jtag_uart_close_fd
00048188 g       *ABS*	00000000 __alt_stack_base
0001dc94 g     F .text	00000054 altera_avalon_jtag_uart_ioctl_fd
00002824 g     F .text	000000cc _fwrite_r
00026cd4 g     O .bss	00000006 sem_data
000080ac g     F .text	00000154 __swsetup_r
0001d33c g     F .text	00000770 alt_read_cfi_width
00046604 g     O .bss	000001e0 OSQTbl
0001035c g     F .text	000008e8 .hidden __divdf3
00001ab4 g     F .text	00000118 __sfp
0000b5d4 g     F .text	00000078 __copybits
000231a4 g     O .rwdata	00000408 __malloc_av_
00001c00 g     F .text	00000004 __sinit_lock_release
00026d7c g     O .bss	00000004 OSTCBHighRdy
00010e9c g     F .text	00000718 .hidden __muldf3
000039d0 g     F .text	00000054 __sread
00026d80 g     O .bss	00000004 OSQFreeList
00020134 g     F .text	00000060 alt_up_rs232_disable_read_interrupt
00020b64 g     F .text	00000108 alt_find_file
00020970 g     F .text	000000a4 alt_dev_llist_insert
00012f80 g     F .text	00000120 __malloc_lock
00001d40 g     F .text	00000028 _fprintf_r
00012c78 g     F .text	000000b0 sbrk
00003ba4 g     F .text	000021d8 ___svfprintf_internal_r
0001328c g     F .text	00000140 OSEventNameSet
00001808 g     F .text	0000005c _fflush_r
0000e840 g     F .text	000000c4 _calloc_r
00026d84 g     O .bss	00000001 OSRdyGrp
00024d18 g     O .rwdata	00000008 alt_flash_dev_list
0001c904 g     F .text	0000004c alt_write_flash_command_16bit_device_16bit_mode
00001d28 g     F .text	00000018 fopen
00026cd0 g       *ABS*	00000000 __bss_start
000033e4 g     F .text	00000128 memset
00000294 g     F .text	00000034 main
00026d40 g     O .bss	00000004 alt_envp
00026d18 g     O .bss	00000004 __malloc_max_total_mem
000204e8 g     F .text	0000003c alt_up_char_buffer_open_dev
0001dbe4 g     F .text	00000060 altera_avalon_jtag_uart_write_fd
0000ec4c g     F .text	00000018 __swbuf
00022ae4 g     O .rodata	00000100 OSUnMapTbl
000013e4 g     F .text	000000cc initCreateTasks
00026d04 g     O .bss	00000004 getsem_task4_got_sem
00024cde g     O .rwdata	00000002 OSSemEn
00000e7c g     F .text	0000002c LCD_cursor_off
0001f814 g     F .text	0000008c alt_up_character_lcd_shift_cursor
000161f4 g     F .text	00000394 OSFlagPost
00003b04 g     F .text	00000008 __sclose
0000054c g     F .text	00000458 alt_ucosii_simple_error_handler
08000000 g       *ABS*	00000000 __alt_heap_limit
000015d8 g     F .text	00000014 fclose
000141f8 g     F .text	00000110 OS_EventTaskWait
0001feb0 g     F .text	00000070 alt_up_ps2_read_data_byte
00014de0 g     F .text	000000cc OS_TaskStatStkChk
0001a9b8 g     F .text	00000150 OSTaskDelReq
000085d4 g     F .text	00001688 _dtoa_r
00002bd8 g     F .text	0000080c _malloc_r
0000edc0 g     F .text	00000030 __ascii_wctomb
0001731c g     F .text	000001c8 OSMutexCreate
00001080 g     F .text	00000058 ledg_OFF_All
00024c90 g     O .rwdata	00000004 alt_errno
00013ce0 g     F .text	00000070 OSStart
00026cdc g     O .bss	00000004 EstadoMotor
0001c9a0 g     F .text	00000050 alt_write_flash_command_32bit_device_32bit_mode
00012f20 g     F .text	00000060 __env_unlock
00000a90 g     F .text	00000170 readBMPFile
0000269c g     F .text	000000c4 _fwalk
0001ae54 g     F .text	000001d4 OSTaskResume
00016fc4 g     F .text	000000e8 OSMemQuery
00024cf0 g     O .rwdata	00000002 OSTaskStatEn
00026cf0 g     O .bss	00000004 number_of_messages_received_task1
0001c300 g     F .text	0000015c alt_write_value_to_flash
00024cca g     O .rwdata	00000002 OSMemMax
00018e14 g     F .text	00000170 OSQPostFront
0002009c g     F .text	0000003c alt_up_ps2_open_dev
0001ca28 g     F .text	00000038 alt_write_native_16bit
0000f8fc g     F .text	00000084 .hidden __divsi3
00026d85 g     O .bss	00000003 OSRdyTbl
00024ca4 g     O .rwdata	00000002 OSDebugEn
0001f240 g     F .text	000000e8 alt_ro_zipfs_read
0001f620 g     F .text	0000003c alt_up_character_lcd_open_dev
00001d8c g     F .text	00000124 _malloc_trim_r
0001fc18 g     F .text	0000005c alt_up_ps2_enable_read_interrupt
000223e4 g       *ABS*	00000000 __CTOR_END__
0001f4dc g     F .text	00000058 alt_ro_zipfs_check_valid
00024cbc g     O .rwdata	00000002 OSFlagNodeSize
00038e50 g     O .bss	00002000 querysem_stk
00024d04 g     O .rwdata	00000002 OSTmrCfgMax
0001f5e8 g     F .text	00000038 alt_up_character_lcd_init
0000bd10 g     F .text	000000dc strcmp
000183d0 g     F .text	000001ac OSQCreate
00026d08 g     O .bss	00000004 getmutex_task1_got_sem
0001ab08 g     F .text	00000198 OSTaskNameGet
000223e4 g       *ABS*	00000000 __flash_rodata_start
00018f84 g     F .text	0000020c OSQPostOpt
00013e00 g     F .text	00000220 OSTimeTick
00024cec g     O .rwdata	00000002 OSTaskMax
000223e4 g       *ABS*	00000000 __DTOR_LIST__
00019444 g     F .text	000000d8 OSSemCreate
00024d10 g     O .rwdata	00000002 OSTmrWheelSize
00017f94 g     F .text	0000016c OSMutexQuery
0002042c g     F .text	0000003c alt_up_rs232_open_dev
00010c44 g     F .text	00000088 .hidden __nedf2
0001f464 g     F .text	00000078 alt_ro_zipfs_fstat
00024ce6 g     O .rwdata	00000002 OSTaskDelEn
00044e50 g     O .bss	00000014 sem_owner_task_name
00019be4 g     F .text	00000110 OSSemQuery
0001857c g     F .text	00000280 OSQDel
00018b40 g     F .text	0000016c OSQPendAbort
0001ba7c g     F .text	00000038 alt_irq_init
00012c14 g     F .text	00000064 alt_release_fd
0001faf0 g     F .text	00000034 read_data_valid
00003964 g     F .text	0000006c sprintf
0001f9b8 g     F .text	00000038 alt_up_character_lcd_cursor_off
000229c8 g     O .rodata	00000100 .hidden __clz_tab
00026d24 g     O .bss	00000004 _PathLocale
00024c50 g     O .rwdata	00000004 pixel_buffer
0001fdb0 g     F .text	00000064 alt_up_ps2_write_data_byte_with_ack
0002216c g     F .text	00000014 atexit
0000804c g     F .text	00000060 _write_r
00013b78 g     F .text	0000008c OSSchedLock
0000a2d0 g     F .text	00000018 setlocale
00015618 g     F .text	00000108 OSFlagCreate
00024c68 g     O .rwdata	00000004 _impure_ptr
00026d38 g     O .bss	00000004 alt_argc
000015ec g     F .text	0000021c __sflush_r
00020a74 g     F .text	00000060 _do_dtors
0000a2bc g     F .text	00000008 __locale_cjk_lang
00024cb6 g     O .rwdata	00000002 OSEventMultiEn
000021c0 g     F .text	00000004 _fseek_r
0000365c g     F .text	000001d4 __srefill_r
00015720 g     F .text	00000248 OSFlagDel
00026d88 g     O .bss	00000004 OSEventFreeList
00000020 g       .exceptions	00000000 alt_irq_entry
0000b200 g     F .text	00000064 __ulp
00015bdc g     F .text	000005b8 OSFlagPend
00024d02 g     O .rwdata	00000002 OSTmrEn
00001c1c g     F .text	00000018 __fp_unlock_all
00026cfc g     O .bss	00000004 getsem_task2_got_sem
0003ae50 g     O .bss	00002000 chequeomotor_stk
00024c7c g     O .rwdata	00000008 alt_fs_list
00000500 g     F .text	0000004c alt_ucosii_check_return_code
00014bf0 g     F .text	00000074 OS_StrCopy
000200d8 g     F .text	0000005c alt_up_rs232_enable_read_interrupt
0001c8b4 g     F .text	00000050 alt_write_flash_command_32bit_device_8bit_mode
00020254 g     F .text	00000040 alt_up_rs232_write_data
00024ccc g     O .rwdata	00000002 OSMemNameSize
000214b4 g     F .text	00000020 OSInitHookEnd
00026ce0 g     O .bss	00000004 PunteroMutex
00000020 g       *ABS*	00000000 __ram_exceptions_start
00024cf8 g     O .rwdata	00000002 OSTCBPrioTblMax
0000a2e8 g     F .text	0000000c localeconv
00026ce4 g     O .bss	00000004 shared_resource_sem
00024cf4 g     O .rwdata	00000002 OSTaskStatStkChkEn
00026ce8 g     O .bss	00000004 upDown
00024cc8 g     O .rwdata	00000002 OSMemEn
000028f0 g     F .text	00000034 fwrite
00024cd2 g     O .rwdata	00000002 OSMutexEn
00024d28 g       *ABS*	00000000 _edata
00048188 g       *ABS*	00000000 _end
00020c6c g     F .text	00000068 alt_flash_open_dev
00026d8c g     O .bss	00000001 OSIntNesting
0000e904 g     F .text	00000164 __fputwc
00000248 g       *ABS*	00000000 __ram_exceptions_end
0001e238 g     F .text	000000f0 altera_avalon_jtag_uart_ioctl
0001b7b8 g     F .text	000001d4 OSTimeDlyResume
00015a90 g     F .text	0000014c OSFlagNameSet
00026d00 g     O .bss	00000004 getsem_task3_got_sem
0001b028 g     F .text	000001c0 OSTaskStkChk
00024cce g     O .rwdata	00000002 OSMemSize
00003a2c g     F .text	0000007c __swrite
00024c70 g     O .rwdata	00000004 __malloc_trim_threshold
0000a2b0 g     F .text	0000000c __locale_msgcharset
00026d90 g     O .bss	00000004 OSTCBCur
000014b0 g     F .text	00000038 exit
00017d7c g     F .text	00000218 OSMutexPost
00024cd0 g     O .rwdata	00000002 OSMemTblSize
00002760 g     F .text	000000c4 _fwalk_reent
0001fb50 g     F .text	000000c8 alt_up_ps2_init
0000b004 g     F .text	000001fc __mdiff
00020cd4 g     F .text	00000054 alt_flash_close_dev
0000f980 g     F .text	00000074 .hidden __modsi3
08000000 g       *ABS*	00000000 __alt_data_end
00000020 g     F .exceptions	00000000 alt_exception
00001bf8 g     F .text	00000004 __sfp_lock_release
000139dc g     F .text	00000058 OSInit
00000000 g       *ABS*	00000000 __alt_mem_sdram
0001b3cc g     F .text	00000124 OSTaskQuery
0001f6d8 g     F .text	00000078 alt_up_character_lcd_string
000192ec g     F .text	000000a8 OS_QInit
00014c64 g     F .text	00000054 OS_StrLen
000002c8 g     F .text	000000ac MTL_box
00016dd8 g     F .text	00000114 OSMemNameSet
00024cea g     O .rwdata	00000002 OSTaskProfileEn
00026d94 g     O .bss	00000004 OSTime
0003ce50 g     O .bss	00002000 initialize_task_stk
000467e4 g     O .bss	00000800 OSTaskIdleStk
00001c34 g     F .text	000000f4 _fopen_r
00012250 g     F .text	00000034 _exit
00020748 g     F .text	0000012c alt_alarm_start
00015968 g     F .text	00000128 OSFlagNameGet
0003ee50 g     O .bss	00002000 receive_task2_stk
000010d8 g     F .text	00000058 ledg_ON_All
0001b98c g     F .text	0000005c OSTimeGet
00002a1c g     F .text	000001bc __smakebuf_r
00024c60 g     O .rwdata	00000004 thG
0001ca60 g     F .text	00000034 alt_write_native_32bit
0001fd48 g     F .text	00000068 alt_up_ps2_wait_for_ack
00003b0c g     F .text	00000098 strlen
00021434 g     F .text	00000020 OSTaskSwHook
00012988 g     F .text	00000154 open
00046fe4 g     O .bss	00000b40 OSEventTbl
00010ccc g     F .text	000000dc .hidden __gedf2
00047b24 g     O .bss	00000510 OSTCBTbl
00019cf4 g     F .text	00000100 OSSemSet
0001c210 g     F .text	0000008c alt_flash_cfi_get_info
00024c78 g     O .rwdata	00000004 __wctomb
0000d2f4 g     F .text	00000018 __sprint_r
00020e84 g     F .text	00000034 alt_icache_flush_all
00024c40 g     O .rwdata	00000004 green_LED_ptr
0001f7a0 g     F .text	00000074 alt_up_character_lcd_set_cursor_pos
00024c94 g     O .rwdata	00000004 alt_priority_mask
0001951c g     F .text	00000240 OSSemDel
00026d98 g     O .bss	00000004 OSFlagFreeList
00024cb0 g     O .rwdata	00000002 OSEventNameSize
00007f74 g     F .text	0000001c __vfprintf_internal
00026d9c g     O .bss	00000001 OSStatRdy
00048034 g     O .bss	00000054 OSTCBPrioTbl
0000edf0 g     F .text	0000005c _wctomb_r
00012e5c g     F .text	000000c4 __env_lock
0001ff78 g     F .text	0000008c alt_up_ps2_read_fd
00024cf6 g     O .rwdata	00000002 OSTaskSwHookEn
000115b4 g     F .text	000008fc .hidden __subdf3
0000127c g     F .text	00000094 initOSDataStructs
00000f2c g     F .text	00000070 ledg_ON
0000aa38 g     F .text	000000b0 __lo0bits
00024d20 g     O .rwdata	00000008 alt_alarm_list
00024cbe g     O .rwdata	00000002 OSFlagWidth
00020a14 g     F .text	00000060 _do_ctors
00020194 g     F .text	00000040 alt_up_rs232_get_used_space_in_read_FIFO
0000ed00 g     F .text	000000c0 wcrtomb
00012154 g     F .text	000000d0 close
00021518 g     F .text	00000068 alt_program_amd
00040e50 g     O .bss	00002000 receive_task1_stk
00026d48 g     O .bss	00000004 alt_envsem
00026da0 g     O .bss	00000004 OSIdleCtrRun
00014020 g     F .text	00000020 OSVersion
00024d08 g     O .rwdata	00000002 OSTmrCfgWheelSize
00012638 g     F .text	00000084 alt_load
0001b4f0 g     F .text	00000070 OS_TaskStkClr
000011b8 g     F .text	000000c4 read_pushbuttons
00024ce2 g     O .rwdata	00000002 OSTaskCreateEn
00042e50 g     O .bss	00002000 getmutex_task1_stk
00014610 g     F .text	00000068 OS_EventWaitListInit
0000ea8c g     F .text	00000080 fputwc
000214d4 g     F .text	00000020 OSTaskIdleHook
00001bfc g     F .text	00000004 __sinit_lock_acquire
0000a7ac g     F .text	00000120 __multadd
0001b1e8 g     F .text	000001e4 OSTaskSuspend
0000a784 g     F .text	00000028 _Bfree
0001ec18 g     F .text	00000134 check_directory_header
00014cb8 g     F .text	0000005c OS_TaskIdle
00024d0e g     O .rwdata	00000002 OSTmrTblSize
00019190 g     F .text	0000015c OSQQuery



Disassembly of section .entry:

00000000 <__reset>:
#if NIOS2_ICACHE_SIZE > 0 && defined(ALT_ALLOW_CODE_AT_RESET) && (!defined(ALT_SIM_OPTIMIZE) || defined(NIOS2_ECC_PRESENT))
    /* Assume the instruction cache size is always a power of two. */
#if NIOS2_ICACHE_SIZE > 0x8000
    movhi r2, %hi(NIOS2_ICACHE_SIZE)
#else
    movui r2, NIOS2_ICACHE_SIZE
   0:	00840014 	movui	r2,4096
#endif

0:
    initi r2
   4:	1001483a 	initi	r2
    addi r2, r2, -NIOS2_ICACHE_LINE_SIZE
   8:	10bff804 	addi	r2,r2,-32
    bgt r2, zero, 0b
   c:	00bffd16 	blt	zero,r2,4 <__alt_mem_onchip_memory+0xf7800004>
 * Jump to the _start entry point in the .text section if reset code
 * is allowed or if optimizing for RTL simulation.
 */
#if defined(ALT_ALLOW_CODE_AT_RESET) || defined(ALT_SIM_OPTIMIZE)
    /* Jump to the _start entry point in the .text section. */
    movhi r1, %hi(_start)
  10:	00400034 	movhi	at,0
    ori r1, r1, %lo(_start)
  14:	08409214 	ori	at,at,584
    jmp r1
  18:	0800683a 	jmp	at
  1c:	00000000 	call	0 <__reset>

Disassembly of section .exceptions:

00000020 <alt_exception>:

#else /* ALT_EXCEPTION_STACK disabled */
        /* 
         * Reserve space on normal stack for registers about to be pushed.
         */
        addi  sp, sp, -76
  20:	deffed04 	addi	sp,sp,-76
         * documentation for details).
         *
         * Leave a gap in the stack frame at 4(sp) for the muldiv handler to
         * store zero into.
         */
        stw   ra,  0(sp)
  24:	dfc00015 	stw	ra,0(sp)
        stw   r1,   8(sp)
  28:	d8400215 	stw	at,8(sp)
        stw   r2,  12(sp)
  2c:	d8800315 	stw	r2,12(sp)
        stw   r3,  16(sp)
  30:	d8c00415 	stw	r3,16(sp)
        stw   r4,  20(sp)
  34:	d9000515 	stw	r4,20(sp)
        stw   r5,  24(sp)
  38:	d9400615 	stw	r5,24(sp)
        stw   r6,  28(sp)
  3c:	d9800715 	stw	r6,28(sp)
        stw   r7,  32(sp)
  40:	d9c00815 	stw	r7,32(sp)
        rdctl r5, estatus   /* Read early to avoid usage stall */
  44:	000b307a 	rdctl	r5,estatus
        stw   r8,  36(sp)
  48:	da000915 	stw	r8,36(sp)
        stw   r9,  40(sp)
  4c:	da400a15 	stw	r9,40(sp)
        stw   r10, 44(sp)
  50:	da800b15 	stw	r10,44(sp)
        stw   r11, 48(sp)
  54:	dac00c15 	stw	r11,48(sp)
        stw   r12, 52(sp)
  58:	db000d15 	stw	r12,52(sp)
        stw   r13, 56(sp)
  5c:	db400e15 	stw	r13,56(sp)
        stw   r14, 60(sp)
  60:	db800f15 	stw	r14,60(sp)
        stw   r15, 64(sp)
  64:	dbc01015 	stw	r15,64(sp)
        /*
         * ea-4 contains the address of the instruction being executed
         * when the exception occured. For interrupt exceptions, we will
         * will be re-issue the isntruction. Store it in 72(sp)
         */
        stw   r5,  68(sp)  /* estatus */
  68:	d9401115 	stw	r5,68(sp)
        addi  r15, ea, -4  /* instruction that caused exception */
  6c:	ebffff04 	addi	r15,ea,-4
        stw   r15,  72(sp)
  70:	dbc01215 	stw	r15,72(sp)
#else
        /*
         * Test to see if the exception was a software exception or caused 
         * by an external interrupt, and vector accordingly.
         */
        rdctl r4, ipending
  74:	0009313a 	rdctl	r4,ipending
        andi  r2, r5, 1
  78:	2880004c 	andi	r2,r5,1
        beq   r2, zero, .Lnot_irq
  7c:	10000326 	beq	r2,zero,8c <OSCtxSw_SWITCH_PC+0x4c>
        beq   r4, zero, .Lnot_irq
  80:	20000226 	beq	r4,zero,8c <OSCtxSw_SWITCH_PC+0x4c>
        /*
         * Now that all necessary registers have been preserved, call 
         * alt_irq_handler() to process the interrupts.
         */

        call alt_irq_handler
  84:	00000fc0 	call	fc <alt_irq_handler>

        .section .exceptions.irqreturn, "xa"

        br    .Lexception_exit
  88:	00000706 	br	a8 <OSCtxSw_SWITCH_PC+0x68>
         * upon completion, so we write ea (address of instruction *after*
         * the one where the exception occured) into 72(sp). The actual
         * instruction that caused the exception is written in r2, which these
         * handlers will utilize.
         */
        stw ea, 72(sp) /* EA is PC+4 so will skip over instruction causing exception */
  8c:	df401215 	stw	ea,72(sp)
.Lunknown_16bit:
        addi.n r4, r4, 2 /* Need PC+2 to skip over instruction causing exception */
        stw r4, 72(sp)

#else /* CDX is not Enabled and all instructions are 32bits */
        ldw r2, -4(ea) /* Instruction value that caused exception */
  90:	e8bfff17 	ldw	r2,-4(ea)
         * debugger is present) or go into an infinite loop since the
         * handling behavior is undefined; in that case we will not return here.
         */

        /* Load exception-causing address as first argument (r4) */
        addi   r4, ea, -4
  94:	e93fff04 	addi	r4,ea,-4

        /* Call the instruction-exception entry */
        call   alt_instruction_exception_entry
  98:	00001d40 	call	1d4 <alt_instruction_exception_entry>
         * instruction
         *
         * Return code was 0: Skip. The instruction after the exception is
         * already stored in 72(sp).
         */
        bne   r2, r0, .Lexception_exit
  9c:	1000021e 	bne	r2,zero,a8 <OSCtxSw_SWITCH_PC+0x68>

        /*
         * Otherwise, modify 72(sp) to re-issue the instruction that caused the
         * exception.
         */
        addi  r15, ea, -4  /* instruction that caused exception */
  a0:	ebffff04 	addi	r15,ea,-4
        stw   r15,  72(sp)
  a4:	dbc01215 	stw	r15,72(sp)
        /* 
         * Restore the saved registers, so that all general purpose registers 
         * have been restored to their state at the time the interrupt occured.
         */

        ldw   r5,  68(sp)
  a8:	d9401117 	ldw	r5,68(sp)
        ldw   ea,  72(sp)  /* This becomes the PC once eret is executed */
  ac:	df401217 	ldw	ea,72(sp)
        ldw   ra,   0(sp)
  b0:	dfc00017 	ldw	ra,0(sp)

        wrctl estatus, r5
  b4:	2801707a 	wrctl	estatus,r5

        ldw   r1,   8(sp)
  b8:	d8400217 	ldw	at,8(sp)
        ldw   r2,  12(sp)
  bc:	d8800317 	ldw	r2,12(sp)
        ldw   r3,  16(sp)
  c0:	d8c00417 	ldw	r3,16(sp)
        ldw   r4,  20(sp)
  c4:	d9000517 	ldw	r4,20(sp)
        ldw   r5,  24(sp)
  c8:	d9400617 	ldw	r5,24(sp)
        ldw   r6,  28(sp)
  cc:	d9800717 	ldw	r6,28(sp)
        ldw   r7,  32(sp)
  d0:	d9c00817 	ldw	r7,32(sp)

#if defined(ALT_EXCEPTION_STACK) && defined(ALT_STACK_CHECK)
        ldw   et, %gprel(alt_exception_old_stack_limit)(gp)
#endif

        ldw   r8,  36(sp)
  d4:	da000917 	ldw	r8,36(sp)
        ldw   r9,  40(sp)
  d8:	da400a17 	ldw	r9,40(sp)
        ldw   r10, 44(sp)
  dc:	da800b17 	ldw	r10,44(sp)
        ldw   r11, 48(sp)
  e0:	dac00c17 	ldw	r11,48(sp)
        ldw   r12, 52(sp)
  e4:	db000d17 	ldw	r12,52(sp)
        ldw   r13, 56(sp)
  e8:	db400e17 	ldw	r13,56(sp)
        ldw   r14, 60(sp)
  ec:	db800f17 	ldw	r14,60(sp)
        ldw   r15, 64(sp)
  f0:	dbc01017 	ldw	r15,64(sp)
        stw   et, %gprel(alt_stack_limit_value)(gp)
        stw   zero, %gprel(alt_exception_old_stack_limit)(gp)
#endif /* ALT_STACK_CHECK */
        ldw   sp,  76(sp)
#else /* ALT_EXCEPTION_STACK disabled */
        addi  sp, sp, 76
  f4:	dec01304 	addi	sp,sp,76

        /*
         * Return to the interrupted instruction.
         */

        eret
  f8:	ef80083a 	eret

000000fc <alt_irq_handler>:
 * instruction is present if the macro ALT_CI_INTERRUPT_VECTOR defined.
 */

void alt_irq_handler (void) __attribute__ ((section (".exceptions")));
void alt_irq_handler (void)
{
  fc:	defff904 	addi	sp,sp,-28
 100:	dfc00615 	stw	ra,24(sp)
 104:	df000515 	stw	fp,20(sp)
 108:	df000504 	addi	fp,sp,20
  
  /*
   * Notify the operating system that we are at interrupt level.
   */ 
  
  ALT_OS_INT_ENTER();
 10c:	0013a340 	call	13a34 <OSIntEnter>
#ifndef NIOS2_EIC_PRESENT
static ALT_INLINE alt_u32 ALT_ALWAYS_INLINE alt_irq_pending (void)
{
  alt_u32 active;

  NIOS2_READ_IPENDING (active);
 110:	0005313a 	rdctl	r2,ipending
 114:	e0bffe15 	stw	r2,-8(fp)

  return active;
 118:	e0bffe17 	ldw	r2,-8(fp)
   * Consider the case where the high priority interupt is asserted during
   * the interrupt entry sequence for a lower priority interrupt to see why
   * this is the case.
   */

  active = alt_irq_pending ();
 11c:	e0bffb15 	stw	r2,-20(fp)

  do
  {
    i = 0;
 120:	e03ffd15 	stw	zero,-12(fp)
    mask = 1;
 124:	00800044 	movi	r2,1
 128:	e0bffc15 	stw	r2,-16(fp)
     * called to clear the interrupt condition.
     */

    do
    {
      if (active & mask)
 12c:	e0fffb17 	ldw	r3,-20(fp)
 130:	e0bffc17 	ldw	r2,-16(fp)
 134:	1884703a 	and	r2,r3,r2
 138:	10001526 	beq	r2,zero,190 <alt_irq_handler+0x94>
      { 
#ifdef ALT_ENHANCED_INTERRUPT_API_PRESENT
        alt_irq[i].handler(alt_irq[i].context); 
#else
        alt_irq[i].handler(alt_irq[i].context, i); 
 13c:	00800174 	movhi	r2,5
 140:	10a02204 	addi	r2,r2,-32632
 144:	e0fffd17 	ldw	r3,-12(fp)
 148:	180690fa 	slli	r3,r3,3
 14c:	10c5883a 	add	r2,r2,r3
 150:	10c00017 	ldw	r3,0(r2)
 154:	00800174 	movhi	r2,5
 158:	10a02204 	addi	r2,r2,-32632
 15c:	e13ffd17 	ldw	r4,-12(fp)
 160:	200890fa 	slli	r4,r4,3
 164:	1105883a 	add	r2,r2,r4
 168:	10800104 	addi	r2,r2,4
 16c:	10800017 	ldw	r2,0(r2)
 170:	e17ffd17 	ldw	r5,-12(fp)
 174:	1009883a 	mov	r4,r2
 178:	183ee83a 	callr	r3
#endif
        break;
 17c:	0001883a 	nop
#ifndef NIOS2_EIC_PRESENT
static ALT_INLINE alt_u32 ALT_ALWAYS_INLINE alt_irq_pending (void)
{
  alt_u32 active;

  NIOS2_READ_IPENDING (active);
 180:	0005313a 	rdctl	r2,ipending
 184:	e0bfff15 	stw	r2,-4(fp)

  return active;
 188:	e0bfff17 	ldw	r2,-4(fp)
 18c:	00000706 	br	1ac <alt_irq_handler+0xb0>
      }
      mask <<= 1;
 190:	e0bffc17 	ldw	r2,-16(fp)
 194:	1085883a 	add	r2,r2,r2
 198:	e0bffc15 	stw	r2,-16(fp)
      i++;
 19c:	e0bffd17 	ldw	r2,-12(fp)
 1a0:	10800044 	addi	r2,r2,1
 1a4:	e0bffd15 	stw	r2,-12(fp)

    } while (1);
 1a8:	003fe006 	br	12c <__alt_mem_onchip_memory+0xf780012c>

    active = alt_irq_pending ();
 1ac:	e0bffb15 	stw	r2,-20(fp)
    
  } while (active);
 1b0:	e0bffb17 	ldw	r2,-20(fp)
 1b4:	103fda1e 	bne	r2,zero,120 <__alt_mem_onchip_memory+0xf7800120>

  /*
   * Notify the operating system that interrupt processing is complete.
   */ 

  ALT_OS_INT_EXIT();
 1b8:	0013a800 	call	13a80 <OSIntExit>
}
 1bc:	0001883a 	nop
 1c0:	e037883a 	mov	sp,fp
 1c4:	dfc00117 	ldw	ra,4(sp)
 1c8:	df000017 	ldw	fp,0(sp)
 1cc:	dec00204 	addi	sp,sp,8
 1d0:	f800283a 	ret

000001d4 <alt_instruction_exception_entry>:
 * that handler if it has been registered. Absent a handler, it will
 * break break or hang as discussed below.
 */
int 
alt_instruction_exception_entry (alt_u32 exception_pc)
{
 1d4:	defffb04 	addi	sp,sp,-20
 1d8:	dfc00415 	stw	ra,16(sp)
 1dc:	df000315 	stw	fp,12(sp)
 1e0:	df000304 	addi	fp,sp,12
 1e4:	e13fff15 	stw	r4,-4(fp)
 * NIOS2_EXCEPTION_CAUSE_NOT_PRESENT. Your handling routine should
 * check the validity of the cause argument before proceeding.
 */
#ifdef NIOS2_HAS_EXTRA_EXCEPTION_INFO
  /* Get exception cause & "badaddr" */
  NIOS2_READ_EXCEPTION(cause);
 1e8:	000531fa 	rdctl	r2,exception
 1ec:	e0bffd15 	stw	r2,-12(fp)
  cause = ( (cause & NIOS2_EXCEPTION_REG_CAUSE_MASK) >>
 1f0:	e0bffd17 	ldw	r2,-12(fp)
 1f4:	10801f0c 	andi	r2,r2,124
 1f8:	1004d0ba 	srli	r2,r2,2
 1fc:	e0bffd15 	stw	r2,-12(fp)
              NIOS2_EXCEPTION_REG_CAUSE_OFST );

  NIOS2_READ_BADADDR(badaddr);
 200:	0005333a 	rdctl	r2,badaddr
 204:	e0bffe15 	stw	r2,-8(fp)
#else
  cause = NIOS2_EXCEPTION_CAUSE_NOT_PRESENT;
  badaddr = 0;
#endif /* NIOS2_HAS_EXTRA_EXCEPTION_INFO */

  if(alt_instruction_exception_handler) {
 208:	d0a85c17 	ldw	r2,-24208(gp)
 20c:	10000726 	beq	r2,zero,22c <alt_instruction_exception_entry+0x58>
     * Call handler. Its return value indicates whether the exception-causing
     * instruction should be re-issued. The code that called us,
     * alt_eceptions_entry.S, will look at this value and adjust the ea
     * register as necessary
     */
    return alt_instruction_exception_handler(cause, exception_pc, badaddr);
 210:	d0a85c17 	ldw	r2,-24208(gp)
 214:	e0fffd17 	ldw	r3,-12(fp)
 218:	e1bffe17 	ldw	r6,-8(fp)
 21c:	e17fff17 	ldw	r5,-4(fp)
 220:	1809883a 	mov	r4,r3
 224:	103ee83a 	callr	r2
 228:	00000206 	br	234 <alt_instruction_exception_entry+0x60>
   *    (a peripheral which negates its interrupt output before its
   *    interrupt handler has been executed will cause spurious interrupts)
   */
  else {
#ifdef NIOS2_HAS_DEBUG_STUB
    NIOS2_BREAK();
 22c:	003da03a 	break	0
      ;
#endif /* NIOS2_HAS_DEBUG_STUB */
  }

  /* We should not get here. Remove compiler warning. */
  return NIOS2_EXCEPTION_RETURN_REISSUE_INST;
 230:	0005883a 	mov	r2,zero
}
 234:	e037883a 	mov	sp,fp
 238:	dfc00117 	ldw	ra,4(sp)
 23c:	df000017 	ldw	fp,0(sp)
 240:	dec00204 	addi	sp,sp,8
 244:	f800283a 	ret

Disassembly of section .text:

00000248 <_start>:

    /* Assume the data cache size is always a power of two. */
#if NIOS2_DCACHE_SIZE > 0x8000
    movhi r2, %hi(NIOS2_DCACHE_SIZE)
#else
    movui r2, NIOS2_DCACHE_SIZE
     248:	00820014 	movui	r2,2048
#endif

0:
    initd 0(r2)
     24c:	10000033 	initd	0(r2)
#ifdef NIOS2_ECC_PRESENT
    addi r2, r2, -4
#else
    addi r2, r2, -NIOS2_DCACHE_LINE_SIZE
     250:	10bff804 	addi	r2,r2,-32
#endif
    bgt r2, zero, 0b
     254:	00bffd16 	blt	zero,r2,24c <__alt_mem_onchip_memory+0xf780024c>

    /*
     * Now that the caches are initialized, set up the stack pointer and global pointer.
     * The values provided by the linker are assumed to be correctly aligned.
     */
    movhi sp, %hi(__alt_stack_pointer)
     258:	06c20034 	movhi	sp,2048
    ori sp, sp, %lo(__alt_stack_pointer)
     25c:	dec00014 	ori	sp,sp,0
    movhi gp, %hi(_gp)
     260:	068000b4 	movhi	gp,2
    ori gp, gp, %lo(_gp)
     264:	d6b30f14 	ori	gp,gp,52284
 */
#ifndef ALT_SIM_OPTIMIZE
    /* Log that the BSS is about to be cleared. */
    ALT_LOG_PUTS(alt_log_msg_bss)

    movhi r2, %hi(__bss_start)
     268:	008000b4 	movhi	r2,2
    ori r2, r2, %lo(__bss_start)
     26c:	109b3414 	ori	r2,r2,27856

    movhi r3, %hi(__bss_end)
     270:	00c00134 	movhi	r3,4
    ori r3, r3, %lo(__bss_end)
     274:	18e06214 	ori	r3,r3,33160

    beq r2, r3, 1f
     278:	10c00326 	beq	r2,r3,288 <_start+0x40>

0:
    stw zero, (r2)
     27c:	10000015 	stw	zero,0(r2)
    addi r2, r2, 4
     280:	10800104 	addi	r2,r2,4
    bltu r2, r3, 0b
     284:	10fffd36 	bltu	r2,r3,27c <__alt_mem_onchip_memory+0xf780027c>
     * section aren't defined until alt_load() has been called).
     */
    mov   et, zero
#endif

    call alt_load
     288:	00126380 	call	12638 <alt_load>

    /* Log that alt_main is about to be called. */
    ALT_LOG_PUTS(alt_log_msg_alt_main)

    /* Call the C entry point. It should never return. */
    call alt_main
     28c:	00127cc0 	call	127cc <alt_main>

00000290 <alt_after_alt_main>:

    /* Wait in infinite loop in case alt_main does return. */
alt_after_alt_main:
    br alt_after_alt_main
     290:	003fff06 	br	290 <__alt_mem_onchip_memory+0xf7800290>

00000294 <main>:



/* The main function creates a single task and starts multi-tasking */
int main(void)
{
     294:	defffe04 	addi	sp,sp,-8
     298:	dfc00115 	stw	ra,4(sp)
     29c:	df000015 	stw	fp,0(sp)
     2a0:	d839883a 	mov	fp,sp

	Init_App();
     2a4:	00009a40 	call	9a4 <Init_App>

	CreateTasks();
     2a8:	00013680 	call	1368 <CreateTasks>

	OSStart();
     2ac:	0013ce00 	call	13ce0 <OSStart>

	return 0;
     2b0:	0005883a 	mov	r2,zero
}
     2b4:	e037883a 	mov	sp,fp
     2b8:	dfc00117 	ldw	ra,4(sp)
     2bc:	df000017 	ldw	fp,0(sp)
     2c0:	dec00204 	addi	sp,sp,8
     2c4:	f800283a 	ret

000002c8 <MTL_box>:

/*
 * Funcion para crear recuadros en la pantalla MTL
 */
void MTL_box(int x1, int y1, int x2, int y2, short pixel_color)
{
     2c8:	defff704 	addi	sp,sp,-36
     2cc:	df000815 	stw	fp,32(sp)
     2d0:	df000804 	addi	fp,sp,32
     2d4:	e13ffb15 	stw	r4,-20(fp)
     2d8:	e17ffc15 	stw	r5,-16(fp)
     2dc:	e1bffd15 	stw	r6,-12(fp)
     2e0:	e1fffe15 	stw	r7,-8(fp)
     2e4:	e0800117 	ldw	r2,4(fp)
     2e8:	e0bfff0d 	sth	r2,-4(fp)
	int offset, row, col;


	for (row = y1; row <= y2; row++)
     2ec:	e0bffc17 	ldw	r2,-16(fp)
     2f0:	e0bff815 	stw	r2,-32(fp)
     2f4:	00001706 	br	354 <MTL_box+0x8c>
	{
		col = x1;
     2f8:	e0bffb17 	ldw	r2,-20(fp)
     2fc:	e0bff915 	stw	r2,-28(fp)
		while (col <= x2)
     300:	00000e06 	br	33c <MTL_box+0x74>
		{
			offset = (row << 9) + col;
     304:	e0bff817 	ldw	r2,-32(fp)
     308:	1006927a 	slli	r3,r2,9
     30c:	e0bff917 	ldw	r2,-28(fp)
     310:	1885883a 	add	r2,r3,r2
     314:	e0bffa15 	stw	r2,-24(fp)
		* (pixel_buffer + offset) = pixel_color;
     318:	d0e00517 	ldw	r3,-32748(gp)
     31c:	e0bffa17 	ldw	r2,-24(fp)
     320:	1085883a 	add	r2,r2,r2
     324:	1885883a 	add	r2,r3,r2
     328:	e0ffff0b 	ldhu	r3,-4(fp)
     32c:	10c0000d 	sth	r3,0(r2)
			++col;
     330:	e0bff917 	ldw	r2,-28(fp)
     334:	10800044 	addi	r2,r2,1
     338:	e0bff915 	stw	r2,-28(fp)


	for (row = y1; row <= y2; row++)
	{
		col = x1;
		while (col <= x2)
     33c:	e0bff917 	ldw	r2,-28(fp)
     340:	e0fffd17 	ldw	r3,-12(fp)
     344:	18bfef0e 	bge	r3,r2,304 <__alt_mem_onchip_memory+0xf7800304>
void MTL_box(int x1, int y1, int x2, int y2, short pixel_color)
{
	int offset, row, col;


	for (row = y1; row <= y2; row++)
     348:	e0bff817 	ldw	r2,-32(fp)
     34c:	10800044 	addi	r2,r2,1
     350:	e0bff815 	stw	r2,-32(fp)
     354:	e0bff817 	ldw	r2,-32(fp)
     358:	e0fffe17 	ldw	r3,-8(fp)
     35c:	18bfe60e 	bge	r3,r2,2f8 <__alt_mem_onchip_memory+0xf78002f8>
			offset = (row << 9) + col;
		* (pixel_buffer + offset) = pixel_color;
			++col;
		}
	}
}
     360:	0001883a 	nop
     364:	e037883a 	mov	sp,fp
     368:	df000017 	ldw	fp,0(sp)
     36c:	dec00104 	addi	sp,sp,4
     370:	f800283a 	ret

00000374 <MTL_text>:

/**
 * Funcion para mostrar texto por la pantalla MTL
 */
void MTL_text(int x, int y, char * text_ptr)
{
     374:	defffb04 	addi	sp,sp,-20
     378:	df000415 	stw	fp,16(sp)
     37c:	df000404 	addi	fp,sp,16
     380:	e13ffd15 	stw	r4,-12(fp)
     384:	e17ffe15 	stw	r5,-8(fp)
     388:	e1bfff15 	stw	r6,-4(fp)
	int offset;

  	offset = (y << 6) + x;
     38c:	e0bffe17 	ldw	r2,-8(fp)
     390:	100691ba 	slli	r3,r2,6
     394:	e0bffd17 	ldw	r2,-12(fp)
     398:	1885883a 	add	r2,r3,r2
     39c:	e0bffc15 	stw	r2,-16(fp)
  	while ( *(text_ptr) )
     3a0:	00000c06 	br	3d4 <MTL_text+0x60>
  	{
  		*(character_buffer + offset) = *(text_ptr);
     3a4:	d0e00617 	ldw	r3,-32744(gp)
     3a8:	e0bffc17 	ldw	r2,-16(fp)
     3ac:	1885883a 	add	r2,r3,r2
     3b0:	e0ffff17 	ldw	r3,-4(fp)
     3b4:	18c00003 	ldbu	r3,0(r3)
     3b8:	10c00005 	stb	r3,0(r2)
  		++text_ptr;
     3bc:	e0bfff17 	ldw	r2,-4(fp)
     3c0:	10800044 	addi	r2,r2,1
     3c4:	e0bfff15 	stw	r2,-4(fp)
  		++offset;
     3c8:	e0bffc17 	ldw	r2,-16(fp)
     3cc:	10800044 	addi	r2,r2,1
     3d0:	e0bffc15 	stw	r2,-16(fp)
void MTL_text(int x, int y, char * text_ptr)
{
	int offset;

  	offset = (y << 6) + x;
  	while ( *(text_ptr) )
     3d4:	e0bfff17 	ldw	r2,-4(fp)
     3d8:	10800003 	ldbu	r2,0(r2)
     3dc:	10803fcc 	andi	r2,r2,255
     3e0:	1080201c 	xori	r2,r2,128
     3e4:	10bfe004 	addi	r2,r2,-128
     3e8:	103fee1e 	bne	r2,zero,3a4 <__alt_mem_onchip_memory+0xf78003a4>
  		*(character_buffer + offset) = *(text_ptr);
  		++text_ptr;
  		++offset;
  	}

}
     3ec:	0001883a 	nop
     3f0:	e037883a 	mov	sp,fp
     3f4:	df000017 	ldw	fp,0(sp)
     3f8:	dec00104 	addi	sp,sp,4
     3fc:	f800283a 	ret

00000400 <borra_lineas_pantalla>:

/**
 *  Funcion para borrar lineas de MTL
 */
void borra_lineas_pantalla(int inicio, int lineas)
{
     400:	deffee04 	addi	sp,sp,-72
     404:	dfc01115 	stw	ra,68(sp)
     408:	df001015 	stw	fp,64(sp)
     40c:	df001004 	addi	fp,sp,64
     410:	e13ffe15 	stw	r4,-8(fp)
     414:	e17fff15 	stw	r5,-4(fp)
	int i;
	char blank[50]="                                                  ";
     418:	00880834 	movhi	r2,8224
     41c:	10880804 	addi	r2,r2,8224
     420:	e0bff115 	stw	r2,-60(fp)
     424:	00880834 	movhi	r2,8224
     428:	10880804 	addi	r2,r2,8224
     42c:	e0bff215 	stw	r2,-56(fp)
     430:	00880834 	movhi	r2,8224
     434:	10880804 	addi	r2,r2,8224
     438:	e0bff315 	stw	r2,-52(fp)
     43c:	00880834 	movhi	r2,8224
     440:	10880804 	addi	r2,r2,8224
     444:	e0bff415 	stw	r2,-48(fp)
     448:	00880834 	movhi	r2,8224
     44c:	10880804 	addi	r2,r2,8224
     450:	e0bff515 	stw	r2,-44(fp)
     454:	00880834 	movhi	r2,8224
     458:	10880804 	addi	r2,r2,8224
     45c:	e0bff615 	stw	r2,-40(fp)
     460:	00880834 	movhi	r2,8224
     464:	10880804 	addi	r2,r2,8224
     468:	e0bff715 	stw	r2,-36(fp)
     46c:	00880834 	movhi	r2,8224
     470:	10880804 	addi	r2,r2,8224
     474:	e0bff815 	stw	r2,-32(fp)
     478:	00880834 	movhi	r2,8224
     47c:	10880804 	addi	r2,r2,8224
     480:	e0bff915 	stw	r2,-28(fp)
     484:	00880834 	movhi	r2,8224
     488:	10880804 	addi	r2,r2,8224
     48c:	e0bffa15 	stw	r2,-24(fp)
     490:	00880834 	movhi	r2,8224
     494:	10880804 	addi	r2,r2,8224
     498:	e0bffb15 	stw	r2,-20(fp)
     49c:	00880834 	movhi	r2,8224
     4a0:	10880804 	addi	r2,r2,8224
     4a4:	e0bffc15 	stw	r2,-16(fp)
     4a8:	00880804 	movi	r2,8224
     4ac:	e0bffd0d 	sth	r2,-12(fp)
	// borra pantalla desde inicio a lineas
		for (i=inicio;i<lineas;i++){
     4b0:	e0bffe17 	ldw	r2,-8(fp)
     4b4:	e0bff015 	stw	r2,-64(fp)
     4b8:	00000806 	br	4dc <borra_lineas_pantalla+0xdc>
			MTL_text(0,i,blank);
     4bc:	e0bff104 	addi	r2,fp,-60
     4c0:	100d883a 	mov	r6,r2
     4c4:	e17ff017 	ldw	r5,-64(fp)
     4c8:	0009883a 	mov	r4,zero
     4cc:	00003740 	call	374 <MTL_text>
void borra_lineas_pantalla(int inicio, int lineas)
{
	int i;
	char blank[50]="                                                  ";
	// borra pantalla desde inicio a lineas
		for (i=inicio;i<lineas;i++){
     4d0:	e0bff017 	ldw	r2,-64(fp)
     4d4:	10800044 	addi	r2,r2,1
     4d8:	e0bff015 	stw	r2,-64(fp)
     4dc:	e0fff017 	ldw	r3,-64(fp)
     4e0:	e0bfff17 	ldw	r2,-4(fp)
     4e4:	18bff516 	blt	r3,r2,4bc <__alt_mem_onchip_memory+0xf78004bc>
			MTL_text(0,i,blank);
		}

}
     4e8:	0001883a 	nop
     4ec:	e037883a 	mov	sp,fp
     4f0:	dfc00117 	ldw	ra,4(sp)
     4f4:	df000017 	ldw	fp,0(sp)
     4f8:	dec00204 	addi	sp,sp,8
     4fc:	f800283a 	ret

00000500 <alt_ucosii_check_return_code>:
 */
 

 
void alt_ucosii_check_return_code(INT8U return_code)
{
     500:	defffd04 	addi	sp,sp,-12
     504:	dfc00215 	stw	ra,8(sp)
     508:	df000115 	stw	fp,4(sp)
     50c:	df000104 	addi	fp,sp,4
     510:	2005883a 	mov	r2,r4
     514:	e0bfff05 	stb	r2,-4(fp)
  if(return_code != OS_NO_ERR)
     518:	e0bfff03 	ldbu	r2,-4(fp)
     51c:	10000526 	beq	r2,zero,534 <alt_ucosii_check_return_code+0x34>
  {
    OSSchedLock();  /* Disable Task Switching but still service other IRQs */
     520:	0013b780 	call	13b78 <OSSchedLock>
    alt_ucosii_simple_error_handler(return_code);
     524:	e0bfff03 	ldbu	r2,-4(fp)
     528:	1009883a 	mov	r4,r2
     52c:	000054c0 	call	54c <alt_ucosii_simple_error_handler>
    OSSchedUnlock(); /* Enable Task Switching */
     530:	0013c040 	call	13c04 <OSSchedUnlock>
  }
}
     534:	0001883a 	nop
     538:	e037883a 	mov	sp,fp
     53c:	dfc00117 	ldw	ra,4(sp)
     540:	df000017 	ldw	fp,0(sp)
     544:	dec00204 	addi	sp,sp,8
     548:	f800283a 	ret

0000054c <alt_ucosii_simple_error_handler>:
 * controls the flow that is taken from different errors occurring at different 
 * locations in the application code.
 */

void alt_ucosii_simple_error_handler(INT8U return_code)
{
     54c:	defffd04 	addi	sp,sp,-12
     550:	dfc00215 	stw	ra,8(sp)
     554:	df000115 	stw	fp,4(sp)
     558:	df000104 	addi	fp,sp,4
     55c:	2005883a 	mov	r2,r4
     560:	e0bfff05 	stb	r2,-4(fp)
  printf("[Program Error]: See STDERR\n");
     564:	010000b4 	movhi	r4,2
     568:	2108f904 	addi	r4,r4,9188
     56c:	000362c0 	call	362c <puts>
  switch (return_code) {
     570:	e0bfff03 	ldbu	r2,-4(fp)
     574:	10c01968 	cmpgeui	r3,r2,101
     578:	1800f71e 	bne	r3,zero,958 <alt_ucosii_simple_error_handler+0x40c>
     57c:	100690ba 	slli	r3,r2,2
     580:	00800034 	movhi	r2,0
     584:	10816504 	addi	r2,r2,1428
     588:	1885883a 	add	r2,r3,r2
     58c:	10800017 	ldw	r2,0(r2)
     590:	1000683a 	jmp	r2
     594:	00000958 	cmpnei	zero,zero,37
     598:	000007f0 	cmpltui	zero,zero,31
     59c:	00000880 	call	88 <OSCtxSw_SWITCH_PC+0x48>
     5a0:	00000838 	rdprs	zero,zero,32
     5a4:	00000814 	movui	zero,32
     5a8:	00000958 	cmpnei	zero,zero,37
     5ac:	00000958 	cmpnei	zero,zero,37
     5b0:	00000958 	cmpnei	zero,zero,37
     5b4:	00000958 	cmpnei	zero,zero,37
     5b8:	00000958 	cmpnei	zero,zero,37
     5bc:	0000085c 	xori	zero,zero,33
     5c0:	00000958 	cmpnei	zero,zero,37
     5c4:	00000958 	cmpnei	zero,zero,37
     5c8:	00000958 	cmpnei	zero,zero,37
     5cc:	00000958 	cmpnei	zero,zero,37
     5d0:	00000958 	cmpnei	zero,zero,37
     5d4:	00000958 	cmpnei	zero,zero,37
     5d8:	00000958 	cmpnei	zero,zero,37
     5dc:	00000958 	cmpnei	zero,zero,37
     5e0:	00000958 	cmpnei	zero,zero,37
     5e4:	000007cc 	andi	zero,zero,31
     5e8:	00000958 	cmpnei	zero,zero,37
     5ec:	00000958 	cmpnei	zero,zero,37
     5f0:	00000958 	cmpnei	zero,zero,37
     5f4:	00000958 	cmpnei	zero,zero,37
     5f8:	00000958 	cmpnei	zero,zero,37
     5fc:	00000958 	cmpnei	zero,zero,37
     600:	00000958 	cmpnei	zero,zero,37
     604:	00000958 	cmpnei	zero,zero,37
     608:	00000958 	cmpnei	zero,zero,37
     60c:	00000910 	cmplti	zero,zero,36
     610:	00000958 	cmpnei	zero,zero,37
     614:	00000958 	cmpnei	zero,zero,37
     618:	00000958 	cmpnei	zero,zero,37
     61c:	00000958 	cmpnei	zero,zero,37
     620:	00000958 	cmpnei	zero,zero,37
     624:	00000958 	cmpnei	zero,zero,37
     628:	00000958 	cmpnei	zero,zero,37
     62c:	00000958 	cmpnei	zero,zero,37
     630:	00000958 	cmpnei	zero,zero,37
     634:	00000728 	cmpgeui	zero,zero,28
     638:	00000958 	cmpnei	zero,zero,37
     63c:	0000074c 	andi	zero,zero,29
     640:	00000958 	cmpnei	zero,zero,37
     644:	00000958 	cmpnei	zero,zero,37
     648:	00000958 	cmpnei	zero,zero,37
     64c:	00000958 	cmpnei	zero,zero,37
     650:	00000958 	cmpnei	zero,zero,37
     654:	00000958 	cmpnei	zero,zero,37
     658:	00000958 	cmpnei	zero,zero,37
     65c:	00000958 	cmpnei	zero,zero,37
     660:	00000958 	cmpnei	zero,zero,37
     664:	00000958 	cmpnei	zero,zero,37
     668:	00000958 	cmpnei	zero,zero,37
     66c:	00000958 	cmpnei	zero,zero,37
     670:	00000958 	cmpnei	zero,zero,37
     674:	00000958 	cmpnei	zero,zero,37
     678:	00000958 	cmpnei	zero,zero,37
     67c:	00000958 	cmpnei	zero,zero,37
     680:	00000958 	cmpnei	zero,zero,37
     684:	00000958 	cmpnei	zero,zero,37
     688:	000008c8 	cmpgei	zero,zero,35
     68c:	000008a4 	muli	zero,zero,34
     690:	00000958 	cmpnei	zero,zero,37
     694:	000008ec 	andhi	zero,zero,35
     698:	00000958 	cmpnei	zero,zero,37
     69c:	0000078c 	andi	zero,zero,30
     6a0:	00000958 	cmpnei	zero,zero,37
     6a4:	00000958 	cmpnei	zero,zero,37
     6a8:	00000958 	cmpnei	zero,zero,37
     6ac:	00000958 	cmpnei	zero,zero,37
     6b0:	00000958 	cmpnei	zero,zero,37
     6b4:	00000958 	cmpnei	zero,zero,37
     6b8:	00000958 	cmpnei	zero,zero,37
     6bc:	00000958 	cmpnei	zero,zero,37
     6c0:	00000958 	cmpnei	zero,zero,37
     6c4:	00000958 	cmpnei	zero,zero,37
     6c8:	00000958 	cmpnei	zero,zero,37
     6cc:	00000958 	cmpnei	zero,zero,37
     6d0:	00000958 	cmpnei	zero,zero,37
     6d4:	00000958 	cmpnei	zero,zero,37
     6d8:	00000958 	cmpnei	zero,zero,37
     6dc:	00000958 	cmpnei	zero,zero,37
     6e0:	00000958 	cmpnei	zero,zero,37
     6e4:	00000958 	cmpnei	zero,zero,37
     6e8:	00000958 	cmpnei	zero,zero,37
     6ec:	00000958 	cmpnei	zero,zero,37
     6f0:	00000958 	cmpnei	zero,zero,37
     6f4:	00000958 	cmpnei	zero,zero,37
     6f8:	00000958 	cmpnei	zero,zero,37
     6fc:	00000958 	cmpnei	zero,zero,37
     700:	00000958 	cmpnei	zero,zero,37
     704:	00000958 	cmpnei	zero,zero,37
     708:	00000958 	cmpnei	zero,zero,37
     70c:	00000958 	cmpnei	zero,zero,37
     710:	00000958 	cmpnei	zero,zero,37
     714:	00000958 	cmpnei	zero,zero,37
     718:	00000958 	cmpnei	zero,zero,37
     71c:	00000958 	cmpnei	zero,zero,37
     720:	00000958 	cmpnei	zero,zero,37
     724:	00000934 	movhi	zero,36
    case OS_PRIO_EXIST:
      fprintf(stderr, "Attempted to assign a task priority that is aready in use.\n");
     728:	d0a00b17 	ldw	r2,-32724(gp)
     72c:	10800317 	ldw	r2,12(r2)
     730:	100f883a 	mov	r7,r2
     734:	01800ec4 	movi	r6,59
     738:	01400044 	movi	r5,1
     73c:	010000b4 	movhi	r4,2
     740:	21090004 	addi	r4,r4,9216
     744:	00028f00 	call	28f0 <fwrite>
      break;
     748:	00008c06 	br	97c <alt_ucosii_simple_error_handler+0x430>
    case OS_PRIO_INVALID:
      fprintf(stderr, "Specified a task priority higher than the allowed maximum.\n");
     74c:	d0a00b17 	ldw	r2,-32724(gp)
     750:	10800317 	ldw	r2,12(r2)
     754:	100f883a 	mov	r7,r2
     758:	01800ec4 	movi	r6,59
     75c:	01400044 	movi	r5,1
     760:	010000b4 	movhi	r4,2
     764:	21090f04 	addi	r4,r4,9276
     768:	00028f00 	call	28f0 <fwrite>
      fprintf(stderr, "Task can not be assigned a priority higher than %d\n",OS_LOWEST_PRIO);
     76c:	d0a00b17 	ldw	r2,-32724(gp)
     770:	10800317 	ldw	r2,12(r2)
     774:	01800504 	movi	r6,20
     778:	014000b4 	movhi	r5,2
     77c:	29491e04 	addi	r5,r5,9336
     780:	1009883a 	mov	r4,r2
     784:	0001d680 	call	1d68 <fprintf>
      break;
     788:	00007c06 	br	97c <alt_ucosii_simple_error_handler+0x430>
    case OS_NO_MORE_TCB:
      fprintf(stderr, "Task Control Blocks have been exhausted\n");
     78c:	d0a00b17 	ldw	r2,-32724(gp)
     790:	10800317 	ldw	r2,12(r2)
     794:	100f883a 	mov	r7,r2
     798:	01800a04 	movi	r6,40
     79c:	01400044 	movi	r5,1
     7a0:	010000b4 	movhi	r4,2
     7a4:	21092b04 	addi	r4,r4,9388
     7a8:	00028f00 	call	28f0 <fwrite>
      fprintf(stderr, "The current max number of task is %d\n",OS_MAX_TASKS);
     7ac:	d0a00b17 	ldw	r2,-32724(gp)
     7b0:	10800317 	ldw	r2,12(r2)
     7b4:	01800284 	movi	r6,10
     7b8:	014000b4 	movhi	r5,2
     7bc:	29493604 	addi	r5,r5,9432
     7c0:	1009883a 	mov	r4,r2
     7c4:	0001d680 	call	1d68 <fprintf>
      break;
     7c8:	00006c06 	br	97c <alt_ucosii_simple_error_handler+0x430>
    case OS_MBOX_FULL:
      fprintf(stderr, "Attempted a Post to a Mailbox that already contains a message\n");
     7cc:	d0a00b17 	ldw	r2,-32724(gp)
     7d0:	10800317 	ldw	r2,12(r2)
     7d4:	100f883a 	mov	r7,r2
     7d8:	01800f84 	movi	r6,62
     7dc:	01400044 	movi	r5,1
     7e0:	010000b4 	movhi	r4,2
     7e4:	21094004 	addi	r4,r4,9472
     7e8:	00028f00 	call	28f0 <fwrite>
      break;
     7ec:	00006306 	br	97c <alt_ucosii_simple_error_handler+0x430>
    case OS_ERR_EVENT_TYPE:
      fprintf(stderr, "Attempted to access a resource that doesn't match the required data type\n");
     7f0:	d0a00b17 	ldw	r2,-32724(gp)
     7f4:	10800317 	ldw	r2,12(r2)
     7f8:	100f883a 	mov	r7,r2
     7fc:	01801244 	movi	r6,73
     800:	01400044 	movi	r5,1
     804:	010000b4 	movhi	r4,2
     808:	21095004 	addi	r4,r4,9536
     80c:	00028f00 	call	28f0 <fwrite>
      break;
     810:	00005a06 	br	97c <alt_ucosii_simple_error_handler+0x430>
    case OS_ERR_PEVENT_NULL:
      fprintf(stderr, "Attempting access a resource that is pointing to NULL\n");
     814:	d0a00b17 	ldw	r2,-32724(gp)
     818:	10800317 	ldw	r2,12(r2)
     81c:	100f883a 	mov	r7,r2
     820:	01800d84 	movi	r6,54
     824:	01400044 	movi	r5,1
     828:	010000b4 	movhi	r4,2
     82c:	21096304 	addi	r4,r4,9612
     830:	00028f00 	call	28f0 <fwrite>
      break;
     834:	00005106 	br	97c <alt_ucosii_simple_error_handler+0x430>
    case OS_ERR_POST_NULL_PTR:
      fprintf(stderr, "Attempted to Post a NULL to a resource. \n");
     838:	d0a00b17 	ldw	r2,-32724(gp)
     83c:	10800317 	ldw	r2,12(r2)
     840:	100f883a 	mov	r7,r2
     844:	01800a44 	movi	r6,41
     848:	01400044 	movi	r5,1
     84c:	010000b4 	movhi	r4,2
     850:	21097104 	addi	r4,r4,9668
     854:	00028f00 	call	28f0 <fwrite>
      break;
     858:	00004806 	br	97c <alt_ucosii_simple_error_handler+0x430>
    case OS_TIMEOUT:
      fprintf(stderr, "Resource not received in specified time\n");
     85c:	d0a00b17 	ldw	r2,-32724(gp)
     860:	10800317 	ldw	r2,12(r2)
     864:	100f883a 	mov	r7,r2
     868:	01800a04 	movi	r6,40
     86c:	01400044 	movi	r5,1
     870:	010000b4 	movhi	r4,2
     874:	21097c04 	addi	r4,r4,9712
     878:	00028f00 	call	28f0 <fwrite>
      break;
     87c:	00003f06 	br	97c <alt_ucosii_simple_error_handler+0x430>
    case OS_ERR_PEND_ISR:
      fprintf(stderr, "Attempting to pending for a resource in an ISR\n");
     880:	d0a00b17 	ldw	r2,-32724(gp)
     884:	10800317 	ldw	r2,12(r2)
     888:	100f883a 	mov	r7,r2
     88c:	01800bc4 	movi	r6,47
     890:	01400044 	movi	r5,1
     894:	010000b4 	movhi	r4,2
     898:	21098704 	addi	r4,r4,9756
     89c:	00028f00 	call	28f0 <fwrite>
      break;
     8a0:	00003606 	br	97c <alt_ucosii_simple_error_handler+0x430>
    case OS_TASK_DEL_IDLE:
      fprintf(stderr, "Attempted to delete the IDLE task\n");
     8a4:	d0a00b17 	ldw	r2,-32724(gp)
     8a8:	10800317 	ldw	r2,12(r2)
     8ac:	100f883a 	mov	r7,r2
     8b0:	01800884 	movi	r6,34
     8b4:	01400044 	movi	r5,1
     8b8:	010000b4 	movhi	r4,2
     8bc:	21099304 	addi	r4,r4,9804
     8c0:	00028f00 	call	28f0 <fwrite>
      break;
     8c4:	00002d06 	br	97c <alt_ucosii_simple_error_handler+0x430>
    case OS_TASK_DEL_ERR:
      fprintf(stderr, "Attempted to delete a task that does not exist\n");
     8c8:	d0a00b17 	ldw	r2,-32724(gp)
     8cc:	10800317 	ldw	r2,12(r2)
     8d0:	100f883a 	mov	r7,r2
     8d4:	01800bc4 	movi	r6,47
     8d8:	01400044 	movi	r5,1
     8dc:	010000b4 	movhi	r4,2
     8e0:	21099c04 	addi	r4,r4,9840
     8e4:	00028f00 	call	28f0 <fwrite>
      break;
     8e8:	00002406 	br	97c <alt_ucosii_simple_error_handler+0x430>
    case OS_TASK_DEL_ISR:
      fprintf(stderr, "Attempted to delete a task from an ISR\n");
     8ec:	d0a00b17 	ldw	r2,-32724(gp)
     8f0:	10800317 	ldw	r2,12(r2)
     8f4:	100f883a 	mov	r7,r2
     8f8:	018009c4 	movi	r6,39
     8fc:	01400044 	movi	r5,1
     900:	010000b4 	movhi	r4,2
     904:	2109a804 	addi	r4,r4,9888
     908:	00028f00 	call	28f0 <fwrite>
      break;
     90c:	00001b06 	br	97c <alt_ucosii_simple_error_handler+0x430>
    case OS_Q_FULL:
      fprintf(stderr, "Attempted to post to a full message queue\n");
     910:	d0a00b17 	ldw	r2,-32724(gp)
     914:	10800317 	ldw	r2,12(r2)
     918:	100f883a 	mov	r7,r2
     91c:	01800a84 	movi	r6,42
     920:	01400044 	movi	r5,1
     924:	010000b4 	movhi	r4,2
     928:	2109b204 	addi	r4,r4,9928
     92c:	00028f00 	call	28f0 <fwrite>
      break;
     930:	00001206 	br	97c <alt_ucosii_simple_error_handler+0x430>
    case OS_ERR_NOT_MUTEX_OWNER:
      fprintf(stderr, "Attempted to post a mutex that is not owned by the task\n");
     934:	d0a00b17 	ldw	r2,-32724(gp)
     938:	10800317 	ldw	r2,12(r2)
     93c:	100f883a 	mov	r7,r2
     940:	01800e04 	movi	r6,56
     944:	01400044 	movi	r5,1
     948:	010000b4 	movhi	r4,2
     94c:	2109bd04 	addi	r4,r4,9972
     950:	00028f00 	call	28f0 <fwrite>
      break;
     954:	00000906 	br	97c <alt_ucosii_simple_error_handler+0x430>
    default:
      fprintf(stderr, "Unknown Error\n");
     958:	d0a00b17 	ldw	r2,-32724(gp)
     95c:	10800317 	ldw	r2,12(r2)
     960:	100f883a 	mov	r7,r2
     964:	01800384 	movi	r6,14
     968:	01400044 	movi	r5,1
     96c:	010000b4 	movhi	r4,2
     970:	2109cc04 	addi	r4,r4,10032
     974:	00028f00 	call	28f0 <fwrite>
      break;
     978:	0001883a 	nop
  }
  fprintf(stderr, "Program is terminating.\n");
     97c:	d0a00b17 	ldw	r2,-32724(gp)
     980:	10800317 	ldw	r2,12(r2)
     984:	100f883a 	mov	r7,r2
     988:	01800604 	movi	r6,24
     98c:	01400044 	movi	r5,1
     990:	010000b4 	movhi	r4,2
     994:	2109d004 	addi	r4,r4,10048
     998:	00028f00 	call	28f0 <fwrite>
  exit(0);
     99c:	0009883a 	mov	r4,zero
     9a0:	00014b00 	call	14b0 <exit>

000009a4 <Init_App>:
volatile int thG = 300;
volatile int upDown = 0;

// inicializacion de la aplicacion
void Init_App(void)
{
     9a4:	defff404 	addi	sp,sp,-48
     9a8:	dfc00b15 	stw	ra,44(sp)
     9ac:	df000a15 	stw	fp,40(sp)
     9b0:	df000a04 	addi	fp,sp,40
	*(chromaProcessor_ptr) = thG;
     9b4:	d0a00717 	ldw	r2,-32740(gp)
     9b8:	d0e00917 	ldw	r3,-32732(gp)
     9bc:	10c00015 	stw	r3,0(r2)
	*(chromaProcessor_ptr + 3) = 3;
     9c0:	d0a00717 	ldw	r2,-32740(gp)
     9c4:	10800304 	addi	r2,r2,12
     9c8:	00c000c4 	movi	r3,3
     9cc:	10c00015 	stw	r3,0(r2)

	*(KEY_ptr + 2) = 0xE;
     9d0:	d0a00217 	ldw	r2,-32760(gp)
     9d4:	10800204 	addi	r2,r2,8
     9d8:	00c00384 	movi	r3,14
     9dc:	10c00015 	stw	r3,0(r2)
	*(KEY_ptr + 3) = 0;
     9e0:	d0a00217 	ldw	r2,-32760(gp)
     9e4:	10800304 	addi	r2,r2,12
     9e8:	10000015 	stw	zero,0(r2)
	alt_irq_register(PUSHBUTTONS_IRQ, NULL, pushbutton_isr);
     9ec:	01800034 	movhi	r6,0
     9f0:	31830004 	addi	r6,r6,3072
     9f4:	000b883a 	mov	r5,zero
     9f8:	01000044 	movi	r4,1
     9fc:	00123700 	call	12370 <alt_irq_register>

	*(SW_switch_ptr + 2) = 0xFF;
     a00:	d0a00317 	ldw	r2,-32756(gp)
     a04:	10800204 	addi	r2,r2,8
     a08:	00c03fc4 	movi	r3,255
     a0c:	10c00015 	stw	r3,0(r2)
	alt_irq_register(SWITCHES_IRQ, NULL, switches_isr);
     a10:	01800034 	movhi	r6,0
     a14:	31833e04 	addi	r6,r6,3320
     a18:	000b883a 	mov	r5,zero
     a1c:	01000084 	movi	r4,2
     a20:	00123700 	call	12370 <alt_irq_register>

	readBMPFile(0);
     a24:	0009883a 	mov	r4,zero
     a28:	0000a900 	call	a90 <readBMPFile>

  	char first_row[40];
	sprintf(first_row, "  G   G-R   G-B ");
     a2c:	008811f4 	movhi	r2,8263
     a30:	10880804 	addi	r2,r2,8224
     a34:	e0bff615 	stw	r2,-40(fp)
     a38:	008b51f4 	movhi	r2,11591
     a3c:	10880804 	addi	r2,r2,8224
     a40:	e0bff715 	stw	r2,-36(fp)
     a44:	00880834 	movhi	r2,8224
     a48:	10881484 	addi	r2,r2,8274
     a4c:	e0bff815 	stw	r2,-32(fp)
     a50:	008810b4 	movhi	r2,8258
     a54:	108b51c4 	addi	r2,r2,11591
     a58:	e0bff915 	stw	r2,-28(fp)
     a5c:	e03ffa05 	stb	zero,-24(fp)
  	LCD_cursor (0,0);
     a60:	000b883a 	mov	r5,zero
     a64:	0009883a 	mov	r4,zero
     a68:	0000dbc0 	call	dbc <LCD_cursor>
	LCD_text (first_row);
     a6c:	e13ff604 	addi	r4,fp,-40
     a70:	0000e1c0 	call	e1c <LCD_text>

	LCD_thresholds();
     a74:	0000ea80 	call	ea8 <LCD_thresholds>
}
     a78:	0001883a 	nop
     a7c:	e037883a 	mov	sp,fp
     a80:	dfc00117 	ldw	ra,4(sp)
     a84:	df000017 	ldw	fp,0(sp)
     a88:	dec00204 	addi	sp,sp,8
     a8c:	f800283a 	ret

00000a90 <readBMPFile>:
 */

#include "..\inc\functions.h"

void readBMPFile(int x)
{
     a90:	deffed04 	addi	sp,sp,-76
     a94:	dfc01215 	stw	ra,72(sp)
     a98:	df001115 	stw	fp,68(sp)
     a9c:	df001104 	addi	fp,sp,68
     aa0:	e13fff15 	stw	r4,-4(fp)
	FILE *fp;
	int offset, row, col;
	int SRAM_BASE_SIN_CACHE = (SRAM_BASE + 0x0100000 + 0x080000000);  //Activando el bit ms significativo se elude la cache de datos
     aa4:	00a24434 	movhi	r2,35088
     aa8:	e0bff215 	stw	r2,-56(fp)
  	volatile short * pixel_buffer = (short *) SRAM_BASE_SIN_CACHE;	// MTL pixel buffer
     aac:	e0bff217 	ldw	r2,-56(fp)
     ab0:	e0bff315 	stw	r2,-52(fp)
  	char file[22];

  	sprintf(file, "/mnt/rozipfs/imagen0%d.bmp", x);
     ab4:	e0bff904 	addi	r2,fp,-28
     ab8:	e1bfff17 	ldw	r6,-4(fp)
     abc:	014000b4 	movhi	r5,2
     ac0:	2949d704 	addi	r5,r5,10076
     ac4:	1009883a 	mov	r4,r2
     ac8:	00039640 	call	3964 <sprintf>
  	fp = fopen(file, "rb");
     acc:	e0bff904 	addi	r2,fp,-28
     ad0:	014000b4 	movhi	r5,2
     ad4:	2949de04 	addi	r5,r5,10104
     ad8:	1009883a 	mov	r4,r2
     adc:	0001d280 	call	1d28 <fopen>
     ae0:	e0bff415 	stw	r2,-48(fp)
  	if (fp == (FILE *)0){
     ae4:	e0bff417 	ldw	r2,-48(fp)
     ae8:	1000031e 	bne	r2,zero,af8 <readBMPFile+0x68>
  	   printf("File opening error ocurred. Exiting program.\n");
     aec:	010000b4 	movhi	r4,2
     af0:	2109df04 	addi	r4,r4,10108
     af4:	000362c0 	call	362c <puts>
  	}
  	for(int i=0;i<54;i++) getc(fp);  // strip out BMP header
     af8:	e03ff115 	stw	zero,-60(fp)
     afc:	00000506 	br	b14 <readBMPFile+0x84>
     b00:	e13ff417 	ldw	r4,-48(fp)
     b04:	00029940 	call	2994 <getc>
     b08:	e0bff117 	ldw	r2,-60(fp)
     b0c:	10800044 	addi	r2,r2,1
     b10:	e0bff115 	stw	r2,-60(fp)
     b14:	e0bff117 	ldw	r2,-60(fp)
     b18:	10800d90 	cmplti	r2,r2,54
     b1c:	103ff81e 	bne	r2,zero,b00 <__alt_mem_onchip_memory+0xf7800b00>
  	for (row = 239; row >= 0; row--) {
     b20:	00803bc4 	movi	r2,239
     b24:	e0bfef15 	stw	r2,-68(fp)
     b28:	00002b06 	br	bd8 <readBMPFile+0x148>
  		for (col = 0; col <= 399; col++) {
     b2c:	e03ff015 	stw	zero,-64(fp)
     b30:	00002306 	br	bc0 <readBMPFile+0x130>
  			offset = (row << 9) + col;
     b34:	e0bfef17 	ldw	r2,-68(fp)
     b38:	1006927a 	slli	r3,r2,9
     b3c:	e0bff017 	ldw	r2,-64(fp)
     b40:	1885883a 	add	r2,r3,r2
     b44:	e0bff515 	stw	r2,-44(fp)
  			int r = getc(fp) >> 3;
     b48:	e13ff417 	ldw	r4,-48(fp)
     b4c:	00029940 	call	2994 <getc>
     b50:	1005d0fa 	srai	r2,r2,3
     b54:	e0bff615 	stw	r2,-40(fp)
  			int g = getc(fp) >> 2;
     b58:	e13ff417 	ldw	r4,-48(fp)
     b5c:	00029940 	call	2994 <getc>
     b60:	1005d0ba 	srai	r2,r2,2
     b64:	e0bff715 	stw	r2,-36(fp)
  			int b = getc(fp) >> 3;
     b68:	e13ff417 	ldw	r4,-48(fp)
     b6c:	00029940 	call	2994 <getc>
     b70:	1005d0fa 	srai	r2,r2,3
     b74:	e0bff815 	stw	r2,-32(fp)
  			*(pixel_buffer + offset) = (b << 11 | g << 5 | r);	//procesa mitad direcciones
     b78:	e0bff517 	ldw	r2,-44(fp)
     b7c:	1085883a 	add	r2,r2,r2
     b80:	1007883a 	mov	r3,r2
     b84:	e0bff317 	ldw	r2,-52(fp)
     b88:	10c5883a 	add	r2,r2,r3
     b8c:	e0fff817 	ldw	r3,-32(fp)
     b90:	180692fa 	slli	r3,r3,11
     b94:	1809883a 	mov	r4,r3
     b98:	e0fff717 	ldw	r3,-36(fp)
     b9c:	1806917a 	slli	r3,r3,5
     ba0:	20c6b03a 	or	r3,r4,r3
     ba4:	1809883a 	mov	r4,r3
     ba8:	e0fff617 	ldw	r3,-40(fp)
     bac:	20c6b03a 	or	r3,r4,r3
     bb0:	10c0000d 	sth	r3,0(r2)
  	if (fp == (FILE *)0){
  	   printf("File opening error ocurred. Exiting program.\n");
  	}
  	for(int i=0;i<54;i++) getc(fp);  // strip out BMP header
  	for (row = 239; row >= 0; row--) {
  		for (col = 0; col <= 399; col++) {
     bb4:	e0bff017 	ldw	r2,-64(fp)
     bb8:	10800044 	addi	r2,r2,1
     bbc:	e0bff015 	stw	r2,-64(fp)
     bc0:	e0bff017 	ldw	r2,-64(fp)
     bc4:	10806410 	cmplti	r2,r2,400
     bc8:	103fda1e 	bne	r2,zero,b34 <__alt_mem_onchip_memory+0xf7800b34>
  	fp = fopen(file, "rb");
  	if (fp == (FILE *)0){
  	   printf("File opening error ocurred. Exiting program.\n");
  	}
  	for(int i=0;i<54;i++) getc(fp);  // strip out BMP header
  	for (row = 239; row >= 0; row--) {
     bcc:	e0bfef17 	ldw	r2,-68(fp)
     bd0:	10bfffc4 	addi	r2,r2,-1
     bd4:	e0bfef15 	stw	r2,-68(fp)
     bd8:	e0bfef17 	ldw	r2,-68(fp)
     bdc:	103fd30e 	bge	r2,zero,b2c <__alt_mem_onchip_memory+0xf7800b2c>
  			int b = getc(fp) >> 3;
  			*(pixel_buffer + offset) = (b << 11 | g << 5 | r);	//procesa mitad direcciones
  		}
  	}

  	fclose(fp);
     be0:	e13ff417 	ldw	r4,-48(fp)
     be4:	00015d80 	call	15d8 <fclose>

}
     be8:	0001883a 	nop
     bec:	e037883a 	mov	sp,fp
     bf0:	dfc00117 	ldw	ra,4(sp)
     bf4:	df000017 	ldw	fp,0(sp)
     bf8:	dec00204 	addi	sp,sp,8
     bfc:	f800283a 	ret

00000c00 <pushbutton_isr>:

extern volatile int upDown;
extern volatile int thG;
extern volatile int image;

void pushbutton_isr() {
     c00:	defffd04 	addi	sp,sp,-12
     c04:	dfc00215 	stw	ra,8(sp)
     c08:	df000115 	stw	fp,4(sp)
     c0c:	df000104 	addi	fp,sp,4
OSIntEnter();
     c10:	0013a340 	call	13a34 <OSIntEnter>
	int KEY_value;

	*(green_LED_ptr) = *(KEY_ptr);
     c14:	d0a00117 	ldw	r2,-32764(gp)
     c18:	d0e00217 	ldw	r3,-32760(gp)
     c1c:	18c00017 	ldw	r3,0(r3)
     c20:	10c00015 	stw	r3,0(r2)

	KEY_value = *(KEY_ptr + 3);		// Leemos registro de pulsadores
     c24:	d0a00217 	ldw	r2,-32760(gp)
     c28:	10800317 	ldw	r2,12(r2)
     c2c:	e0bfff15 	stw	r2,-4(fp)

	*(KEY_ptr + 3) = 0;				// Borrar la interrupcion
     c30:	d0a00217 	ldw	r2,-32760(gp)
     c34:	10800304 	addi	r2,r2,12
     c38:	10000015 	stw	zero,0(r2)

	if (KEY_value & 0x4)// KEY2 ajusta el valor del umbral de diferencia GREEN - RED
     c3c:	e0bfff17 	ldw	r2,-4(fp)
     c40:	1080010c 	andi	r2,r2,4
     c44:	10001726 	beq	r2,zero,ca4 <pushbutton_isr+0xa4>
		{
			// printf("KEY2");
			if (upDown) {
     c48:	d0a82b17 	ldw	r2,-24404(gp)
     c4c:	10000426 	beq	r2,zero,c60 <pushbutton_isr+0x60>
				thG = thG + 5;
     c50:	d0a00917 	ldw	r2,-32732(gp)
     c54:	10800144 	addi	r2,r2,5
     c58:	d0a00915 	stw	r2,-32732(gp)
     c5c:	00000306 	br	c6c <pushbutton_isr+0x6c>
			}
			else {
				thG = thG - 5;
     c60:	d0a00917 	ldw	r2,-32732(gp)
     c64:	10bffec4 	addi	r2,r2,-5
     c68:	d0a00915 	stw	r2,-32732(gp)
			}

			if (thG > 800){
     c6c:	d0a00917 	ldw	r2,-32732(gp)
     c70:	1080c850 	cmplti	r2,r2,801
     c74:	1000021e 	bne	r2,zero,c80 <pushbutton_isr+0x80>
				thG = 300;
     c78:	00804b04 	movi	r2,300
     c7c:	d0a00915 	stw	r2,-32732(gp)
			}
			if (thG < 300) {
     c80:	d0a00917 	ldw	r2,-32732(gp)
     c84:	10804b08 	cmpgei	r2,r2,300
     c88:	1000021e 	bne	r2,zero,c94 <pushbutton_isr+0x94>
				thG = 800;
     c8c:	0080c804 	movi	r2,800
     c90:	d0a00915 	stw	r2,-32732(gp)
			}
			*(chromaProcessor_ptr) = thG;
     c94:	d0a00717 	ldw	r2,-32740(gp)
     c98:	d0e00917 	ldw	r3,-32732(gp)
     c9c:	10c00015 	stw	r3,0(r2)
     ca0:	00000d06 	br	cd8 <pushbutton_isr+0xd8>
			//printf("G - R: %d\n", *(chromaProcessor_ptr));
		}
	else if (KEY_value & 0x8){
     ca4:	e0bfff17 	ldw	r2,-4(fp)
     ca8:	1080020c 	andi	r2,r2,8
     cac:	10000a26 	beq	r2,zero,cd8 <pushbutton_isr+0xd8>
		readBMPFile(image);
     cb0:	d0a00817 	ldw	r2,-32736(gp)
     cb4:	1009883a 	mov	r4,r2
     cb8:	0000a900 	call	a90 <readBMPFile>
		image++;
     cbc:	d0a00817 	ldw	r2,-32736(gp)
     cc0:	10800044 	addi	r2,r2,1
     cc4:	d0a00815 	stw	r2,-32736(gp)
		if(image == 4) {
     cc8:	d0a00817 	ldw	r2,-32736(gp)
     ccc:	10800118 	cmpnei	r2,r2,4
     cd0:	1000011e 	bne	r2,zero,cd8 <pushbutton_isr+0xd8>
			image = 0;
     cd4:	d0200815 	stw	zero,-32736(gp)
		}
	}
	LCD_thresholds();
     cd8:	0000ea80 	call	ea8 <LCD_thresholds>

OSIntExit();
     cdc:	0013a800 	call	13a80 <OSIntExit>
}
     ce0:	0001883a 	nop
     ce4:	e037883a 	mov	sp,fp
     ce8:	dfc00117 	ldw	ra,4(sp)
     cec:	df000017 	ldw	fp,0(sp)
     cf0:	dec00204 	addi	sp,sp,8
     cf4:	f800283a 	ret

00000cf8 <switches_isr>:


void switches_isr() {
     cf8:	defffd04 	addi	sp,sp,-12
     cfc:	dfc00215 	stw	ra,8(sp)
     d00:	df000115 	stw	fp,4(sp)
     d04:	df000104 	addi	fp,sp,4
	OSIntEnter();
     d08:	0013a340 	call	13a34 <OSIntEnter>
		int SW_value;
		*(red_LED_ptr) = *(SW_switch_ptr);
     d0c:	d0a00017 	ldw	r2,-32768(gp)
     d10:	d0e00317 	ldw	r3,-32756(gp)
     d14:	18c00017 	ldw	r3,0(r3)
     d18:	10c00015 	stw	r3,0(r2)
		SW_value = *(SW_switch_ptr + 3);	// Leemos registro de Switches
     d1c:	d0a00317 	ldw	r2,-32756(gp)
     d20:	10800317 	ldw	r2,12(r2)
     d24:	e0bfff15 	stw	r2,-4(fp)

		*(SW_switch_ptr + 3) = 0;
     d28:	d0a00317 	ldw	r2,-32756(gp)
     d2c:	10800304 	addi	r2,r2,12
     d30:	10000015 	stw	zero,0(r2)

		//printf("%d", SW_value);
		switch(SW_value) {
     d34:	e0bfff17 	ldw	r2,-4(fp)
     d38:	10c000a0 	cmpeqi	r3,r2,2
     d3c:	18000b1e 	bne	r3,zero,d6c <switches_isr+0x74>
     d40:	10c00120 	cmpeqi	r3,r2,4
     d44:	18000f1e 	bne	r3,zero,d84 <switches_isr+0x8c>
     d48:	10800060 	cmpeqi	r2,r2,1
     d4c:	1000011e 	bne	r2,zero,d54 <switches_isr+0x5c>
			}
			//printf("UpDown: %d\n", upDown);
			break;
		default:
			//printf("Ninguna funcin asignada\n");
			break;
     d50:	00001306 	br	da0 <switches_isr+0xa8>

		//printf("%d", SW_value);
		switch(SW_value) {
		case 1:
			//printf("Video Enabled\n");
			*(chromaProcessor_ptr + 3) = *(SW_switch_ptr);
     d54:	d0a00717 	ldw	r2,-32740(gp)
     d58:	10800304 	addi	r2,r2,12
     d5c:	d0e00317 	ldw	r3,-32756(gp)
     d60:	18c00017 	ldw	r3,0(r3)
     d64:	10c00015 	stw	r3,0(r2)
			break;
     d68:	00000d06 	br	da0 <switches_isr+0xa8>
		case 2:
			//printf("Image Enabled\n");
			*(chromaProcessor_ptr + 3) = *(SW_switch_ptr);
     d6c:	d0a00717 	ldw	r2,-32740(gp)
     d70:	10800304 	addi	r2,r2,12
     d74:	d0e00317 	ldw	r3,-32756(gp)
     d78:	18c00017 	ldw	r3,0(r3)
     d7c:	10c00015 	stw	r3,0(r2)
			break;
     d80:	00000706 	br	da0 <switches_isr+0xa8>
		case 4:
			if(upDown == 0) {
     d84:	d0a82b17 	ldw	r2,-24404(gp)
     d88:	1000031e 	bne	r2,zero,d98 <switches_isr+0xa0>
				upDown = 1;
     d8c:	00800044 	movi	r2,1
     d90:	d0a82b15 	stw	r2,-24404(gp)
			}
			else {
				upDown = 0;
			}
			//printf("UpDown: %d\n", upDown);
			break;
     d94:	00000106 	br	d9c <switches_isr+0xa4>
		case 4:
			if(upDown == 0) {
				upDown = 1;
			}
			else {
				upDown = 0;
     d98:	d0282b15 	stw	zero,-24404(gp)
			}
			//printf("UpDown: %d\n", upDown);
			break;
     d9c:	0001883a 	nop
		default:
			//printf("Ninguna funcin asignada\n");
			break;
		}
		OSIntExit();
     da0:	0013a800 	call	13a80 <OSIntExit>
}
     da4:	0001883a 	nop
     da8:	e037883a 	mov	sp,fp
     dac:	dfc00117 	ldw	ra,4(sp)
     db0:	df000017 	ldw	fp,0(sp)
     db4:	dec00204 	addi	sp,sp,8
     db8:	f800283a 	ret

00000dbc <LCD_cursor>:

/**
 * Subrutina para mover Cursor del LCD en DE2-115
 */
void LCD_cursor (int x, int y)
{
     dbc:	defffc04 	addi	sp,sp,-16
     dc0:	df000315 	stw	fp,12(sp)
     dc4:	df000304 	addi	fp,sp,12
     dc8:	e13ffe15 	stw	r4,-8(fp)
     dcc:	e17fff15 	stw	r5,-4(fp)
//	volatile char * LCD_display_ptr = (char *) CHAR_LCD_BASE;
	char instruccion;
	instruccion =x;
     dd0:	e0bffe17 	ldw	r2,-8(fp)
     dd4:	e0bffd05 	stb	r2,-12(fp)
	if (y!=0)instruccion |= 0x40;
     dd8:	e0bfff17 	ldw	r2,-4(fp)
     ddc:	10000326 	beq	r2,zero,dec <LCD_cursor+0x30>
     de0:	e0bffd03 	ldbu	r2,-12(fp)
     de4:	10801014 	ori	r2,r2,64
     de8:	e0bffd05 	stb	r2,-12(fp)
	instruccion |= 0x80;
     dec:	e0fffd03 	ldbu	r3,-12(fp)
     df0:	00bfe004 	movi	r2,-128
     df4:	1884b03a 	or	r2,r3,r2
     df8:	e0bffd05 	stb	r2,-12(fp)
	*(LCD_display_ptr)=instruccion;
     dfc:	d0a00417 	ldw	r2,-32752(gp)
     e00:	e0fffd03 	ldbu	r3,-12(fp)
     e04:	10c00005 	stb	r3,0(r2)
}
     e08:	0001883a 	nop
     e0c:	e037883a 	mov	sp,fp
     e10:	df000017 	ldw	fp,0(sp)
     e14:	dec00104 	addi	sp,sp,4
     e18:	f800283a 	ret

00000e1c <LCD_text>:
/**
 * Subrutina para enviar cadena texto a LCD
 */

void LCD_text (char *text_ptr)
{
     e1c:	defffe04 	addi	sp,sp,-8
     e20:	df000115 	stw	fp,4(sp)
     e24:	df000104 	addi	fp,sp,4
     e28:	e13fff15 	stw	r4,-4(fp)
//	volatile char *LCD_display_ptr =(char *)CHAR_LCD_BASE;
	while (*(text_ptr))
     e2c:	00000806 	br	e50 <LCD_text+0x34>
	{
		*(LCD_display_ptr+1)=*(text_ptr);
     e30:	d0a00417 	ldw	r2,-32752(gp)
     e34:	10800044 	addi	r2,r2,1
     e38:	e0ffff17 	ldw	r3,-4(fp)
     e3c:	18c00003 	ldbu	r3,0(r3)
     e40:	10c00005 	stb	r3,0(r2)
		++text_ptr;
     e44:	e0bfff17 	ldw	r2,-4(fp)
     e48:	10800044 	addi	r2,r2,1
     e4c:	e0bfff15 	stw	r2,-4(fp)
 */

void LCD_text (char *text_ptr)
{
//	volatile char *LCD_display_ptr =(char *)CHAR_LCD_BASE;
	while (*(text_ptr))
     e50:	e0bfff17 	ldw	r2,-4(fp)
     e54:	10800003 	ldbu	r2,0(r2)
     e58:	10803fcc 	andi	r2,r2,255
     e5c:	1080201c 	xori	r2,r2,128
     e60:	10bfe004 	addi	r2,r2,-128
     e64:	103ff21e 	bne	r2,zero,e30 <__alt_mem_onchip_memory+0xf7800e30>
	{
		*(LCD_display_ptr+1)=*(text_ptr);
		++text_ptr;
	}
}
     e68:	0001883a 	nop
     e6c:	e037883a 	mov	sp,fp
     e70:	df000017 	ldw	fp,0(sp)
     e74:	dec00104 	addi	sp,sp,4
     e78:	f800283a 	ret

00000e7c <LCD_cursor_off>:
/**
 * Subrutina para apagar el cursor del LCD
 */

void LCD_cursor_off (void)
{
     e7c:	deffff04 	addi	sp,sp,-4
     e80:	df000015 	stw	fp,0(sp)
     e84:	d839883a 	mov	fp,sp
//	volatile char *LCD_display_ptr =(char *)CHAR_LCD_BASE;
	*(LCD_display_ptr)=0x0C;
     e88:	d0a00417 	ldw	r2,-32752(gp)
     e8c:	00c00304 	movi	r3,12
     e90:	10c00005 	stb	r3,0(r2)
}
     e94:	0001883a 	nop
     e98:	e037883a 	mov	sp,fp
     e9c:	df000017 	ldw	fp,0(sp)
     ea0:	dec00104 	addi	sp,sp,4
     ea4:	f800283a 	ret

00000ea8 <LCD_thresholds>:

void LCD_thresholds(void)
{
     ea8:	defff904 	addi	sp,sp,-28
     eac:	dfc00615 	stw	ra,24(sp)
     eb0:	df000515 	stw	fp,20(sp)
     eb4:	df000504 	addi	fp,sp,20
  	char second_row[16];
	sprintf(second_row, " %d  %d   %d", thG, thG/2, thG/2);
     eb8:	d1200917 	ldw	r4,-32732(gp)
     ebc:	d0a00917 	ldw	r2,-32732(gp)
     ec0:	1006d7fa 	srli	r3,r2,31
     ec4:	1885883a 	add	r2,r3,r2
     ec8:	1005d07a 	srai	r2,r2,1
     ecc:	100b883a 	mov	r5,r2
     ed0:	d0a00917 	ldw	r2,-32732(gp)
     ed4:	1006d7fa 	srli	r3,r2,31
     ed8:	1885883a 	add	r2,r3,r2
     edc:	1005d07a 	srai	r2,r2,1
     ee0:	d8800015 	stw	r2,0(sp)
     ee4:	280f883a 	mov	r7,r5
     ee8:	200d883a 	mov	r6,r4
     eec:	014000b4 	movhi	r5,2
     ef0:	2949eb04 	addi	r5,r5,10156
     ef4:	e13ffc04 	addi	r4,fp,-16
     ef8:	00039640 	call	3964 <sprintf>
	LCD_cursor (0,1);						// fija el cursor del LCD en la fila inferior
     efc:	01400044 	movi	r5,1
     f00:	0009883a 	mov	r4,zero
     f04:	0000dbc0 	call	dbc <LCD_cursor>
	LCD_text (second_row);
     f08:	e13ffc04 	addi	r4,fp,-16
     f0c:	0000e1c0 	call	e1c <LCD_text>
	LCD_cursor_off ();
     f10:	0000e7c0 	call	e7c <LCD_cursor_off>
}
     f14:	0001883a 	nop
     f18:	e037883a 	mov	sp,fp
     f1c:	dfc00117 	ldw	ra,4(sp)
     f20:	df000017 	ldw	fp,0(sp)
     f24:	dec00204 	addi	sp,sp,8
     f28:	f800283a 	ret

00000f2c <ledg_ON>:
/*****************************************************************
 *                   FUNCIONES DE MANEJO DE LEDS
 ****************************************************************/

int ledg_ON (volatile int * ptr_led, int i)
{
     f2c:	defffd04 	addi	sp,sp,-12
     f30:	df000215 	stw	fp,8(sp)
     f34:	df000204 	addi	fp,sp,8
     f38:	e13ffe15 	stw	r4,-8(fp)
     f3c:	e17fff15 	stw	r5,-4(fp)
	if ((i<0) & (i>8))
     f40:	e0bfff17 	ldw	r2,-4(fp)
     f44:	1004d7fa 	srli	r2,r2,31
     f48:	1007883a 	mov	r3,r2
     f4c:	e0bfff17 	ldw	r2,-4(fp)
     f50:	10800248 	cmpgei	r2,r2,9
     f54:	1884703a 	and	r2,r3,r2
     f58:	10803fcc 	andi	r2,r2,255
     f5c:	10000226 	beq	r2,zero,f68 <ledg_ON+0x3c>
	{
		return 0;
     f60:	0005883a 	mov	r2,zero
     f64:	00000906 	br	f8c <ledg_ON+0x60>
	}
	else
	{
		*(ptr_led) |= (0x00 | (1 << i));	//switch on LED-i
     f68:	e0bffe17 	ldw	r2,-8(fp)
     f6c:	10c00017 	ldw	r3,0(r2)
     f70:	01000044 	movi	r4,1
     f74:	e0bfff17 	ldw	r2,-4(fp)
     f78:	2084983a 	sll	r2,r4,r2
     f7c:	1886b03a 	or	r3,r3,r2
     f80:	e0bffe17 	ldw	r2,-8(fp)
     f84:	10c00015 	stw	r3,0(r2)
		return 1;
     f88:	00800044 	movi	r2,1
	}
}
     f8c:	e037883a 	mov	sp,fp
     f90:	df000017 	ldw	fp,0(sp)
     f94:	dec00104 	addi	sp,sp,4
     f98:	f800283a 	ret

00000f9c <ledg_OFF>:

int ledg_OFF (volatile int * ptr_led, int i)
{
     f9c:	defffd04 	addi	sp,sp,-12
     fa0:	df000215 	stw	fp,8(sp)
     fa4:	df000204 	addi	fp,sp,8
     fa8:	e13ffe15 	stw	r4,-8(fp)
     fac:	e17fff15 	stw	r5,-4(fp)
	if (( i<0) & (i>8))
     fb0:	e0bfff17 	ldw	r2,-4(fp)
     fb4:	1004d7fa 	srli	r2,r2,31
     fb8:	1007883a 	mov	r3,r2
     fbc:	e0bfff17 	ldw	r2,-4(fp)
     fc0:	10800248 	cmpgei	r2,r2,9
     fc4:	1884703a 	and	r2,r3,r2
     fc8:	10803fcc 	andi	r2,r2,255
     fcc:	10000226 	beq	r2,zero,fd8 <ledg_OFF+0x3c>
	{
		return 0;
     fd0:	0005883a 	mov	r2,zero
     fd4:	00000a06 	br	1000 <ledg_OFF+0x64>
	}
	else
	{
		*(ptr_led) &= (0xFF) ^ (1 << i);	//switch off LED-i
     fd8:	e0bffe17 	ldw	r2,-8(fp)
     fdc:	10c00017 	ldw	r3,0(r2)
     fe0:	01000044 	movi	r4,1
     fe4:	e0bfff17 	ldw	r2,-4(fp)
     fe8:	2084983a 	sll	r2,r4,r2
     fec:	10803fdc 	xori	r2,r2,255
     ff0:	1886703a 	and	r3,r3,r2
     ff4:	e0bffe17 	ldw	r2,-8(fp)
     ff8:	10c00015 	stw	r3,0(r2)

		return 1;
     ffc:	00800044 	movi	r2,1
	}
}
    1000:	e037883a 	mov	sp,fp
    1004:	df000017 	ldw	fp,0(sp)
    1008:	dec00104 	addi	sp,sp,4
    100c:	f800283a 	ret

00001010 <blinky_ledg>:

int blinky_ledg (volatile int * ptr_led, int i)
{
    1010:	defffd04 	addi	sp,sp,-12
    1014:	df000215 	stw	fp,8(sp)
    1018:	df000204 	addi	fp,sp,8
    101c:	e13ffe15 	stw	r4,-8(fp)
    1020:	e17fff15 	stw	r5,-4(fp)

	if ((i<0) & (i>8))
    1024:	e0bfff17 	ldw	r2,-4(fp)
    1028:	1004d7fa 	srli	r2,r2,31
    102c:	1007883a 	mov	r3,r2
    1030:	e0bfff17 	ldw	r2,-4(fp)
    1034:	10800248 	cmpgei	r2,r2,9
    1038:	1884703a 	and	r2,r3,r2
    103c:	10803fcc 	andi	r2,r2,255
    1040:	10000226 	beq	r2,zero,104c <blinky_ledg+0x3c>
		{
			return 0;
    1044:	0005883a 	mov	r2,zero
    1048:	00000906 	br	1070 <blinky_ledg+0x60>
		}
		else
		{
			*(ptr_led) ^= (0x00 | (1 << i)); //switch LED-i
    104c:	e0bffe17 	ldw	r2,-8(fp)
    1050:	10c00017 	ldw	r3,0(r2)
    1054:	01000044 	movi	r4,1
    1058:	e0bfff17 	ldw	r2,-4(fp)
    105c:	2084983a 	sll	r2,r4,r2
    1060:	1886f03a 	xor	r3,r3,r2
    1064:	e0bffe17 	ldw	r2,-8(fp)
    1068:	10c00015 	stw	r3,0(r2)
			return 1;
    106c:	00800044 	movi	r2,1
		}
}
    1070:	e037883a 	mov	sp,fp
    1074:	df000017 	ldw	fp,0(sp)
    1078:	dec00104 	addi	sp,sp,4
    107c:	f800283a 	ret

00001080 <ledg_OFF_All>:

void ledg_OFF_All ()
{
    1080:	defffd04 	addi	sp,sp,-12
    1084:	dfc00215 	stw	ra,8(sp)
    1088:	df000115 	stw	fp,4(sp)
    108c:	df000104 	addi	fp,sp,4
	int i;
	for (i=0; i<9; i++)
    1090:	e03fff15 	stw	zero,-4(fp)
    1094:	00000706 	br	10b4 <ledg_OFF_All+0x34>
	{
	ledg_OFF(green_LED_ptr,i);
    1098:	d0a00117 	ldw	r2,-32764(gp)
    109c:	e17fff17 	ldw	r5,-4(fp)
    10a0:	1009883a 	mov	r4,r2
    10a4:	0000f9c0 	call	f9c <ledg_OFF>
}

void ledg_OFF_All ()
{
	int i;
	for (i=0; i<9; i++)
    10a8:	e0bfff17 	ldw	r2,-4(fp)
    10ac:	10800044 	addi	r2,r2,1
    10b0:	e0bfff15 	stw	r2,-4(fp)
    10b4:	e0bfff17 	ldw	r2,-4(fp)
    10b8:	10800250 	cmplti	r2,r2,9
    10bc:	103ff61e 	bne	r2,zero,1098 <__alt_mem_onchip_memory+0xf7801098>
	{
	ledg_OFF(green_LED_ptr,i);
	}
}
    10c0:	0001883a 	nop
    10c4:	e037883a 	mov	sp,fp
    10c8:	dfc00117 	ldw	ra,4(sp)
    10cc:	df000017 	ldw	fp,0(sp)
    10d0:	dec00204 	addi	sp,sp,8
    10d4:	f800283a 	ret

000010d8 <ledg_ON_All>:


void ledg_ON_All ()
{
    10d8:	defffd04 	addi	sp,sp,-12
    10dc:	dfc00215 	stw	ra,8(sp)
    10e0:	df000115 	stw	fp,4(sp)
    10e4:	df000104 	addi	fp,sp,4
	int i;
	for (i=0; i<9; i++)
    10e8:	e03fff15 	stw	zero,-4(fp)
    10ec:	00000706 	br	110c <ledg_ON_All+0x34>
	{
	ledg_ON(green_LED_ptr,i);
    10f0:	d0a00117 	ldw	r2,-32764(gp)
    10f4:	e17fff17 	ldw	r5,-4(fp)
    10f8:	1009883a 	mov	r4,r2
    10fc:	0000f2c0 	call	f2c <ledg_ON>


void ledg_ON_All ()
{
	int i;
	for (i=0; i<9; i++)
    1100:	e0bfff17 	ldw	r2,-4(fp)
    1104:	10800044 	addi	r2,r2,1
    1108:	e0bfff15 	stw	r2,-4(fp)
    110c:	e0bfff17 	ldw	r2,-4(fp)
    1110:	10800250 	cmplti	r2,r2,9
    1114:	103ff61e 	bne	r2,zero,10f0 <__alt_mem_onchip_memory+0xf78010f0>
	{
	ledg_ON(green_LED_ptr,i);
	}
}
    1118:	0001883a 	nop
    111c:	e037883a 	mov	sp,fp
    1120:	dfc00117 	ldw	ra,4(sp)
    1124:	df000017 	ldw	fp,0(sp)
    1128:	dec00204 	addi	sp,sp,8
    112c:	f800283a 	ret

00001130 <read_switches>:
INT8U highest;
char sem_owner_task_name[20];


// tarea de lectura de los switches
void read_switches() {
    1130:	defffd04 	addi	sp,sp,-12
    1134:	df000215 	stw	fp,8(sp)
    1138:	df000204 	addi	fp,sp,8
	int SW_value;
	INT8U Error=OS_NO_ERR;
    113c:	e03ffe05 	stb	zero,-8(fp)
	OS_FLAGS return_code;
	while(1){
	SW_value = *(SW_switch_ptr + 3);
    1140:	d0a00317 	ldw	r2,-32756(gp)
    1144:	10800317 	ldw	r2,12(r2)
    1148:	e0bfff15 	stw	r2,-4(fp)

	switch (SW_value){
    114c:	e0bfff17 	ldw	r2,-4(fp)
    1150:	10c000a0 	cmpeqi	r3,r2,2
    1154:	18000a1e 	bne	r3,zero,1180 <read_switches+0x50>
    1158:	10c00120 	cmpeqi	r3,r2,4
    115c:	18000e1e 	bne	r3,zero,1198 <read_switches+0x68>
    1160:	10800060 	cmpeqi	r2,r2,1
    1164:	10001326 	beq	r2,zero,11b4 <read_switches+0x84>
	case (0x01):{*(chromaProcessor_ptr + 3) = *(SW_switch_ptr);}
    1168:	d0a00717 	ldw	r2,-32740(gp)
    116c:	10800304 	addi	r2,r2,12
    1170:	d0e00317 	ldw	r3,-32756(gp)
    1174:	18c00017 	ldw	r3,0(r3)
    1178:	10c00015 	stw	r3,0(r2)
	break;
    117c:	00000d06 	br	11b4 <read_switches+0x84>
	case (0x02):{*(chromaProcessor_ptr + 3) = *(SW_switch_ptr);}
    1180:	d0a00717 	ldw	r2,-32740(gp)
    1184:	10800304 	addi	r2,r2,12
    1188:	d0e00317 	ldw	r3,-32756(gp)
    118c:	18c00017 	ldw	r3,0(r3)
    1190:	10c00015 	stw	r3,0(r2)
	break;
    1194:	00000706 	br	11b4 <read_switches+0x84>
	case (0x04):{if(upDown) {upDown = 0;}else {upDown = 1;}}
    1198:	d0a82b17 	ldw	r2,-24404(gp)
    119c:	10000226 	beq	r2,zero,11a8 <read_switches+0x78>
    11a0:	d0282b15 	stw	zero,-24404(gp)
	break;
    11a4:	00000206 	br	11b0 <read_switches+0x80>
	switch (SW_value){
	case (0x01):{*(chromaProcessor_ptr + 3) = *(SW_switch_ptr);}
	break;
	case (0x02):{*(chromaProcessor_ptr + 3) = *(SW_switch_ptr);}
	break;
	case (0x04):{if(upDown) {upDown = 0;}else {upDown = 1;}}
    11a8:	00800044 	movi	r2,1
    11ac:	d0a82b15 	stw	r2,-24404(gp)
	break;
    11b0:	0001883a 	nop

	alt_ucosii_check_return_code(Error);

	OSTimeDlyHMSM(0,0,0,300);
	}
}
    11b4:	003fe206 	br	1140 <__alt_mem_onchip_memory+0xf7801140>

000011b8 <read_pushbuttons>:
}

// tarea de lectura de los pushbuttons
void read_pushbuttons() {
    11b8:	defffc04 	addi	sp,sp,-16
    11bc:	dfc00315 	stw	ra,12(sp)
    11c0:	df000215 	stw	fp,8(sp)
    11c4:	df000204 	addi	fp,sp,8
	int KEY_value;
	INT8U Error=OS_NO_ERR;
    11c8:	e03ffe05 	stb	zero,-8(fp)
	OS_FLAGS return_code;

	while(1){
	KEY_value = *(KEY_ptr + 3);
    11cc:	d0a00217 	ldw	r2,-32760(gp)
    11d0:	10800317 	ldw	r2,12(r2)
    11d4:	e0bfff15 	stw	r2,-4(fp)

	switch (KEY_value){
    11d8:	e0bfff17 	ldw	r2,-4(fp)
    11dc:	10c00120 	cmpeqi	r3,r2,4
    11e0:	18000d1e 	bne	r3,zero,1218 <read_pushbuttons+0x60>
    11e4:	10800220 	cmpeqi	r2,r2,8
    11e8:	10002326 	beq	r2,zero,1278 <read_pushbuttons+0xc0>
	case (0x08):{
		readBMPFile(image);
    11ec:	d0a00817 	ldw	r2,-32736(gp)
    11f0:	1009883a 	mov	r4,r2
    11f4:	0000a900 	call	a90 <readBMPFile>
		image++;
    11f8:	d0a00817 	ldw	r2,-32736(gp)
    11fc:	10800044 	addi	r2,r2,1
    1200:	d0a00815 	stw	r2,-32736(gp)
		if(image == 4) {
    1204:	d0a00817 	ldw	r2,-32736(gp)
    1208:	10800118 	cmpnei	r2,r2,4
    120c:	1000191e 	bne	r2,zero,1274 <read_pushbuttons+0xbc>
			image = 0;
    1210:	d0200815 	stw	zero,-32736(gp)
		}
	}
	break;
    1214:	00001706 	br	1274 <read_pushbuttons+0xbc>
	case (0x04):{
		if (upDown) {
    1218:	d0a82b17 	ldw	r2,-24404(gp)
    121c:	10000426 	beq	r2,zero,1230 <read_pushbuttons+0x78>
			thG = thG + 5;
    1220:	d0a00917 	ldw	r2,-32732(gp)
    1224:	10800144 	addi	r2,r2,5
    1228:	d0a00915 	stw	r2,-32732(gp)
    122c:	00000306 	br	123c <read_pushbuttons+0x84>
		}
		else {
			thG = thG - 5;
    1230:	d0a00917 	ldw	r2,-32732(gp)
    1234:	10bffec4 	addi	r2,r2,-5
    1238:	d0a00915 	stw	r2,-32732(gp)
		}

		if (thG > 800){
    123c:	d0a00917 	ldw	r2,-32732(gp)
    1240:	1080c850 	cmplti	r2,r2,801
    1244:	1000021e 	bne	r2,zero,1250 <read_pushbuttons+0x98>
			thG = 300;
    1248:	00804b04 	movi	r2,300
    124c:	d0a00915 	stw	r2,-32732(gp)
		}
		if (thG < 300) {
    1250:	d0a00917 	ldw	r2,-32732(gp)
    1254:	10804b08 	cmpgei	r2,r2,300
    1258:	1000021e 	bne	r2,zero,1264 <read_pushbuttons+0xac>
			thG = 800;
    125c:	0080c804 	movi	r2,800
    1260:	d0a00915 	stw	r2,-32732(gp)
		}
		*(chromaProcessor_ptr) = thG;
    1264:	d0a00717 	ldw	r2,-32740(gp)
    1268:	d0e00917 	ldw	r3,-32732(gp)
    126c:	10c00015 	stw	r3,0(r2)
	}
	break;
    1270:	00000106 	br	1278 <read_pushbuttons+0xc0>
		image++;
		if(image == 4) {
			image = 0;
		}
	}
	break;
    1274:	0001883a 	nop

	alt_ucosii_check_return_code(Error);

	OSTimeDlyHMSM(0,0,0,300);
	}
}
    1278:	003fd406 	br	11cc <__alt_mem_onchip_memory+0xf78011cc>

0000127c <initOSDataStructs>:
}

int initOSDataStructs(void)
{
    127c:	defffd04 	addi	sp,sp,-12
    1280:	dfc00215 	stw	ra,8(sp)
    1284:	df000115 	stw	fp,4(sp)
    1288:	df000104 	addi	fp,sp,4
  INT8U	ErrorMutex=OS_NO_ERR;
    128c:	e03fff05 	stb	zero,-4(fp)
  INT8U ErrorFlags=OS_NO_ERR;
    1290:	e03fff45 	stb	zero,-3(fp)
  msgqueue = OSQCreate(&msgqueueTbl[0], MSG_QUEUE_SIZE);
    1294:	01400784 	movi	r5,30
    1298:	010000f4 	movhi	r4,3
    129c:	210b7604 	addi	r4,r4,11736
    12a0:	00183d00 	call	183d0 <OSQCreate>
    12a4:	d0a82515 	stw	r2,-24428(gp)
  shared_resource_sem = OSSemCreate(3); //se crea semaforo de nivel 3
    12a8:	010000c4 	movi	r4,3
    12ac:	00194440 	call	19444 <OSSemCreate>
    12b0:	d0a82a15 	stw	r2,-24408(gp)
  PunteroMutex=OSMutexCreate(PIP_PRIORITY_INHERITANCE,&ErrorMutex); //Mejor prioridad que todos (4)
    12b4:	e17fff04 	addi	r5,fp,-4
    12b8:	01000104 	movi	r4,4
    12bc:	001731c0 	call	1731c <OSMutexCreate>
    12c0:	d0a82915 	stw	r2,-24412(gp)
  alt_ucosii_check_return_code(ErrorMutex);
    12c4:	e0bfff03 	ldbu	r2,-4(fp)
    12c8:	10803fcc 	andi	r2,r2,255
    12cc:	1009883a 	mov	r4,r2
    12d0:	00005000 	call	500 <alt_ucosii_check_return_code>
  EstadoMotor=OSFlagCreate(0x00, &ErrorFlags);
    12d4:	e0bfff44 	addi	r2,fp,-3
    12d8:	100b883a 	mov	r5,r2
    12dc:	0009883a 	mov	r4,zero
    12e0:	00156180 	call	15618 <OSFlagCreate>
    12e4:	d0a82815 	stw	r2,-24416(gp)
  alt_ucosii_check_return_code(ErrorFlags);
    12e8:	e0bfff43 	ldbu	r2,-3(fp)
    12ec:	10803fcc 	andi	r2,r2,255
    12f0:	1009883a 	mov	r4,r2
    12f4:	00005000 	call	500 <alt_ucosii_check_return_code>
  return 0;
    12f8:	0005883a 	mov	r2,zero
}
    12fc:	e037883a 	mov	sp,fp
    1300:	dfc00117 	ldw	ra,4(sp)
    1304:	df000017 	ldw	fp,0(sp)
    1308:	dec00204 	addi	sp,sp,8
    130c:	f800283a 	ret

00001310 <TaskInit>:

void TaskInit(void* pdata)
{
    1310:	defffc04 	addi	sp,sp,-16
    1314:	dfc00315 	stw	ra,12(sp)
    1318:	df000215 	stw	fp,8(sp)
    131c:	df000204 	addi	fp,sp,8
    1320:	e13fff15 	stw	r4,-4(fp)
	 INT8U return_code = OS_NO_ERR;
    1324:	e03ffe05 	stb	zero,-8(fp)
  while (1)
  {
		ledg_OFF_All();
    1328:	00010800 	call	1080 <ledg_OFF_All>
		blinky_ledg(green_LED_ptr,8);
    132c:	d0a00117 	ldw	r2,-32764(gp)
    1330:	01400204 	movi	r5,8
    1334:	1009883a 	mov	r4,r2
    1338:	00010100 	call	1010 <blinky_ledg>
		OSSchedLock();	 /* entramos en seccion critica*/
    133c:	0013b780 	call	13b78 <OSSchedLock>
		OSSchedUnlock(); /* salimos SC */
    1340:	0013c040 	call	13c04 <OSSchedUnlock>

	    /*create os data structures */
	    initOSDataStructs();
    1344:	000127c0 	call	127c <initOSDataStructs>

	    /* create the tasks */
	    initCreateTasks();
    1348:	00013e40 	call	13e4 <initCreateTasks>

	    /*This task is deleted because there is no need for it to run again */
	    return_code = OSTaskDel(OS_PRIO_SELF);
    134c:	01003fc4 	movi	r4,255
    1350:	001a6740 	call	1a674 <OSTaskDel>
    1354:	e0bffe05 	stb	r2,-8(fp)
	    alt_ucosii_check_return_code(return_code);
    1358:	e0bffe03 	ldbu	r2,-8(fp)
    135c:	1009883a 	mov	r4,r2
    1360:	00005000 	call	500 <alt_ucosii_check_return_code>

  }
    1364:	003ff006 	br	1328 <__alt_mem_onchip_memory+0xf7801328>

00001368 <CreateTasks>:
}

void CreateTasks (void)
{
    1368:	defff804 	addi	sp,sp,-32
    136c:	dfc00715 	stw	ra,28(sp)
    1370:	df000615 	stw	fp,24(sp)
    1374:	df000604 	addi	fp,sp,24
	INT8U return_code = OS_NO_ERR;
    1378:	e03fff05 	stb	zero,-4(fp)

	 return_code= OSTaskCreateExt(TaskInit,
    137c:	d8000415 	stw	zero,16(sp)
    1380:	d8000315 	stw	zero,12(sp)
    1384:	00820004 	movi	r2,2048
    1388:	d8800215 	stw	r2,8(sp)
    138c:	00800134 	movhi	r2,4
    1390:	10b39404 	addi	r2,r2,-12720
    1394:	d8800115 	stw	r2,4(sp)
    1398:	00800184 	movi	r2,6
    139c:	d8800015 	stw	r2,0(sp)
    13a0:	01c00184 	movi	r7,6
    13a4:	01800134 	movhi	r6,4
    13a8:	31bb9304 	addi	r6,r6,-4532
    13ac:	000b883a 	mov	r5,zero
    13b0:	01000034 	movhi	r4,0
    13b4:	2104c404 	addi	r4,r4,4880
    13b8:	001a4900 	call	1a490 <OSTaskCreateExt>
    13bc:	e0bfff05 	stb	r2,-4(fp)
					  INITIALIZE_TASK_PRIORITY,
					  initialize_task_stk,
	                  TASK_STACKSIZE,
	                  NULL,
	                  0);
	  alt_ucosii_check_return_code(return_code);
    13c0:	e0bfff03 	ldbu	r2,-4(fp)
    13c4:	1009883a 	mov	r4,r2
    13c8:	00005000 	call	500 <alt_ucosii_check_return_code>
}
    13cc:	0001883a 	nop
    13d0:	e037883a 	mov	sp,fp
    13d4:	dfc00117 	ldw	ra,4(sp)
    13d8:	df000017 	ldw	fp,0(sp)
    13dc:	dec00204 	addi	sp,sp,8
    13e0:	f800283a 	ret

000013e4 <initCreateTasks>:

/*This function creates the tasks used in this example
 */

int initCreateTasks(void)
{
    13e4:	defff804 	addi	sp,sp,-32
    13e8:	dfc00715 	stw	ra,28(sp)
    13ec:	df000615 	stw	fp,24(sp)
    13f0:	df000604 	addi	fp,sp,24
	INT8U return_code = OS_NO_ERR;
    13f4:	e03fff05 	stb	zero,-4(fp)

	return_code = OSTaskCreateExt(read_switches,
    13f8:	d8000415 	stw	zero,16(sp)
    13fc:	d8000315 	stw	zero,12(sp)
    1400:	00820004 	movi	r2,2048
    1404:	d8800215 	stw	r2,8(sp)
    1408:	008000f4 	movhi	r2,3
    140c:	10bb7604 	addi	r2,r2,-4648
    1410:	d8800115 	stw	r2,4(sp)
    1414:	00800144 	movi	r2,5
    1418:	d8800015 	stw	r2,0(sp)
    141c:	01c00144 	movi	r7,5
    1420:	018000f4 	movhi	r6,3
    1424:	31837604 	addi	r6,r6,3544
    1428:	000b883a 	mov	r5,zero
    142c:	01000034 	movhi	r4,0
    1430:	21044c04 	addi	r4,r4,4400
    1434:	001a4900 	call	1a490 <OSTaskCreateExt>
    1438:	e0bfff05 	stb	r2,-4(fp)
							  READ_SWITCHES_PRIORITY,
							  read_switches_stk,
							  TASK_STACKSIZE,
							  NULL,
							  0);
	alt_ucosii_check_return_code(return_code);
    143c:	e0bfff03 	ldbu	r2,-4(fp)
    1440:	1009883a 	mov	r4,r2
    1444:	00005000 	call	500 <alt_ucosii_check_return_code>

	return_code = OSTaskCreateExt(read_pushbuttons,
    1448:	d8000415 	stw	zero,16(sp)
    144c:	d8000315 	stw	zero,12(sp)
    1450:	00820004 	movi	r2,2048
    1454:	d8800215 	stw	r2,8(sp)
    1458:	008000f4 	movhi	r2,3
    145c:	10ab7604 	addi	r2,r2,-21032
    1460:	d8800115 	stw	r2,4(sp)
    1464:	00800104 	movi	r2,4
    1468:	d8800015 	stw	r2,0(sp)
    146c:	01c00104 	movi	r7,4
    1470:	018000f4 	movhi	r6,3
    1474:	31b37604 	addi	r6,r6,-12840
    1478:	000b883a 	mov	r5,zero
    147c:	01000034 	movhi	r4,0
    1480:	21046e04 	addi	r4,r4,4536
    1484:	001a4900 	call	1a490 <OSTaskCreateExt>
    1488:	e0bfff05 	stb	r2,-4(fp)
							   READ_PUSHBUTTONS_PRIORITY,
							   read_pushbuttons_stk,
							   TASK_STACKSIZE,
							   NULL,
							   0);
	alt_ucosii_check_return_code(return_code);
    148c:	e0bfff03 	ldbu	r2,-4(fp)
    1490:	1009883a 	mov	r4,r2
    1494:	00005000 	call	500 <alt_ucosii_check_return_code>

	return 0;
    1498:	0005883a 	mov	r2,zero
}
    149c:	e037883a 	mov	sp,fp
    14a0:	dfc00117 	ldw	ra,4(sp)
    14a4:	df000017 	ldw	fp,0(sp)
    14a8:	dec00204 	addi	sp,sp,8
    14ac:	f800283a 	ret

000014b0 <exit>:
    14b0:	defffe04 	addi	sp,sp,-8
    14b4:	000b883a 	mov	r5,zero
    14b8:	dc000015 	stw	r16,0(sp)
    14bc:	dfc00115 	stw	ra,4(sp)
    14c0:	2021883a 	mov	r16,r4
    14c4:	00082540 	call	8254 <__call_exitprocs>
    14c8:	008000b4 	movhi	r2,2
    14cc:	10931904 	addi	r2,r2,19556
    14d0:	11000017 	ldw	r4,0(r2)
    14d4:	20800f17 	ldw	r2,60(r4)
    14d8:	10000126 	beq	r2,zero,14e0 <exit+0x30>
    14dc:	103ee83a 	callr	r2
    14e0:	8009883a 	mov	r4,r16
    14e4:	00122500 	call	12250 <_exit>

000014e8 <_fclose_r>:
    14e8:	28003926 	beq	r5,zero,15d0 <_fclose_r+0xe8>
    14ec:	defffc04 	addi	sp,sp,-16
    14f0:	dc400115 	stw	r17,4(sp)
    14f4:	dc000015 	stw	r16,0(sp)
    14f8:	dfc00315 	stw	ra,12(sp)
    14fc:	dc800215 	stw	r18,8(sp)
    1500:	2023883a 	mov	r17,r4
    1504:	2821883a 	mov	r16,r5
    1508:	20000226 	beq	r4,zero,1514 <_fclose_r+0x2c>
    150c:	20800e17 	ldw	r2,56(r4)
    1510:	10002726 	beq	r2,zero,15b0 <_fclose_r+0xc8>
    1514:	8080030f 	ldh	r2,12(r16)
    1518:	1000071e 	bne	r2,zero,1538 <_fclose_r+0x50>
    151c:	0005883a 	mov	r2,zero
    1520:	dfc00317 	ldw	ra,12(sp)
    1524:	dc800217 	ldw	r18,8(sp)
    1528:	dc400117 	ldw	r17,4(sp)
    152c:	dc000017 	ldw	r16,0(sp)
    1530:	dec00404 	addi	sp,sp,16
    1534:	f800283a 	ret
    1538:	800b883a 	mov	r5,r16
    153c:	8809883a 	mov	r4,r17
    1540:	00015ec0 	call	15ec <__sflush_r>
    1544:	1025883a 	mov	r18,r2
    1548:	80800b17 	ldw	r2,44(r16)
    154c:	10000426 	beq	r2,zero,1560 <_fclose_r+0x78>
    1550:	81400717 	ldw	r5,28(r16)
    1554:	8809883a 	mov	r4,r17
    1558:	103ee83a 	callr	r2
    155c:	10001616 	blt	r2,zero,15b8 <_fclose_r+0xd0>
    1560:	8080030b 	ldhu	r2,12(r16)
    1564:	1080200c 	andi	r2,r2,128
    1568:	1000151e 	bne	r2,zero,15c0 <_fclose_r+0xd8>
    156c:	81400c17 	ldw	r5,48(r16)
    1570:	28000526 	beq	r5,zero,1588 <_fclose_r+0xa0>
    1574:	80801004 	addi	r2,r16,64
    1578:	28800226 	beq	r5,r2,1584 <_fclose_r+0x9c>
    157c:	8809883a 	mov	r4,r17
    1580:	0001eb00 	call	1eb0 <_free_r>
    1584:	80000c15 	stw	zero,48(r16)
    1588:	81401117 	ldw	r5,68(r16)
    158c:	28000326 	beq	r5,zero,159c <_fclose_r+0xb4>
    1590:	8809883a 	mov	r4,r17
    1594:	0001eb00 	call	1eb0 <_free_r>
    1598:	80001115 	stw	zero,68(r16)
    159c:	0001bf40 	call	1bf4 <__sfp_lock_acquire>
    15a0:	8000030d 	sth	zero,12(r16)
    15a4:	0001bf80 	call	1bf8 <__sfp_lock_release>
    15a8:	9005883a 	mov	r2,r18
    15ac:	003fdc06 	br	1520 <__alt_mem_onchip_memory+0xf7801520>
    15b0:	0001be40 	call	1be4 <__sinit>
    15b4:	003fd706 	br	1514 <__alt_mem_onchip_memory+0xf7801514>
    15b8:	04bfffc4 	movi	r18,-1
    15bc:	003fe806 	br	1560 <__alt_mem_onchip_memory+0xf7801560>
    15c0:	81400417 	ldw	r5,16(r16)
    15c4:	8809883a 	mov	r4,r17
    15c8:	0001eb00 	call	1eb0 <_free_r>
    15cc:	003fe706 	br	156c <__alt_mem_onchip_memory+0xf780156c>
    15d0:	0005883a 	mov	r2,zero
    15d4:	f800283a 	ret

000015d8 <fclose>:
    15d8:	008000b4 	movhi	r2,2
    15dc:	10931a04 	addi	r2,r2,19560
    15e0:	200b883a 	mov	r5,r4
    15e4:	11000017 	ldw	r4,0(r2)
    15e8:	00014e81 	jmpi	14e8 <_fclose_r>

000015ec <__sflush_r>:
    15ec:	2880030b 	ldhu	r2,12(r5)
    15f0:	defffb04 	addi	sp,sp,-20
    15f4:	dcc00315 	stw	r19,12(sp)
    15f8:	dc400115 	stw	r17,4(sp)
    15fc:	dfc00415 	stw	ra,16(sp)
    1600:	dc800215 	stw	r18,8(sp)
    1604:	dc000015 	stw	r16,0(sp)
    1608:	10c0020c 	andi	r3,r2,8
    160c:	2823883a 	mov	r17,r5
    1610:	2027883a 	mov	r19,r4
    1614:	1800311e 	bne	r3,zero,16dc <__sflush_r+0xf0>
    1618:	28c00117 	ldw	r3,4(r5)
    161c:	10820014 	ori	r2,r2,2048
    1620:	2880030d 	sth	r2,12(r5)
    1624:	00c04b0e 	bge	zero,r3,1754 <__sflush_r+0x168>
    1628:	8a000a17 	ldw	r8,40(r17)
    162c:	40002326 	beq	r8,zero,16bc <__sflush_r+0xd0>
    1630:	9c000017 	ldw	r16,0(r19)
    1634:	10c4000c 	andi	r3,r2,4096
    1638:	98000015 	stw	zero,0(r19)
    163c:	18004826 	beq	r3,zero,1760 <__sflush_r+0x174>
    1640:	89801417 	ldw	r6,80(r17)
    1644:	10c0010c 	andi	r3,r2,4
    1648:	18000626 	beq	r3,zero,1664 <__sflush_r+0x78>
    164c:	88c00117 	ldw	r3,4(r17)
    1650:	88800c17 	ldw	r2,48(r17)
    1654:	30cdc83a 	sub	r6,r6,r3
    1658:	10000226 	beq	r2,zero,1664 <__sflush_r+0x78>
    165c:	88800f17 	ldw	r2,60(r17)
    1660:	308dc83a 	sub	r6,r6,r2
    1664:	89400717 	ldw	r5,28(r17)
    1668:	000f883a 	mov	r7,zero
    166c:	9809883a 	mov	r4,r19
    1670:	403ee83a 	callr	r8
    1674:	00ffffc4 	movi	r3,-1
    1678:	10c04426 	beq	r2,r3,178c <__sflush_r+0x1a0>
    167c:	88c0030b 	ldhu	r3,12(r17)
    1680:	89000417 	ldw	r4,16(r17)
    1684:	88000115 	stw	zero,4(r17)
    1688:	197dffcc 	andi	r5,r3,63487
    168c:	8940030d 	sth	r5,12(r17)
    1690:	89000015 	stw	r4,0(r17)
    1694:	18c4000c 	andi	r3,r3,4096
    1698:	18002c1e 	bne	r3,zero,174c <__sflush_r+0x160>
    169c:	89400c17 	ldw	r5,48(r17)
    16a0:	9c000015 	stw	r16,0(r19)
    16a4:	28000526 	beq	r5,zero,16bc <__sflush_r+0xd0>
    16a8:	88801004 	addi	r2,r17,64
    16ac:	28800226 	beq	r5,r2,16b8 <__sflush_r+0xcc>
    16b0:	9809883a 	mov	r4,r19
    16b4:	0001eb00 	call	1eb0 <_free_r>
    16b8:	88000c15 	stw	zero,48(r17)
    16bc:	0005883a 	mov	r2,zero
    16c0:	dfc00417 	ldw	ra,16(sp)
    16c4:	dcc00317 	ldw	r19,12(sp)
    16c8:	dc800217 	ldw	r18,8(sp)
    16cc:	dc400117 	ldw	r17,4(sp)
    16d0:	dc000017 	ldw	r16,0(sp)
    16d4:	dec00504 	addi	sp,sp,20
    16d8:	f800283a 	ret
    16dc:	2c800417 	ldw	r18,16(r5)
    16e0:	903ff626 	beq	r18,zero,16bc <__alt_mem_onchip_memory+0xf78016bc>
    16e4:	2c000017 	ldw	r16,0(r5)
    16e8:	108000cc 	andi	r2,r2,3
    16ec:	2c800015 	stw	r18,0(r5)
    16f0:	84a1c83a 	sub	r16,r16,r18
    16f4:	1000131e 	bne	r2,zero,1744 <__sflush_r+0x158>
    16f8:	28800517 	ldw	r2,20(r5)
    16fc:	88800215 	stw	r2,8(r17)
    1700:	04000316 	blt	zero,r16,1710 <__sflush_r+0x124>
    1704:	003fed06 	br	16bc <__alt_mem_onchip_memory+0xf78016bc>
    1708:	90a5883a 	add	r18,r18,r2
    170c:	043feb0e 	bge	zero,r16,16bc <__alt_mem_onchip_memory+0xf78016bc>
    1710:	88800917 	ldw	r2,36(r17)
    1714:	89400717 	ldw	r5,28(r17)
    1718:	800f883a 	mov	r7,r16
    171c:	900d883a 	mov	r6,r18
    1720:	9809883a 	mov	r4,r19
    1724:	103ee83a 	callr	r2
    1728:	80a1c83a 	sub	r16,r16,r2
    172c:	00bff616 	blt	zero,r2,1708 <__alt_mem_onchip_memory+0xf7801708>
    1730:	88c0030b 	ldhu	r3,12(r17)
    1734:	00bfffc4 	movi	r2,-1
    1738:	18c01014 	ori	r3,r3,64
    173c:	88c0030d 	sth	r3,12(r17)
    1740:	003fdf06 	br	16c0 <__alt_mem_onchip_memory+0xf78016c0>
    1744:	0005883a 	mov	r2,zero
    1748:	003fec06 	br	16fc <__alt_mem_onchip_memory+0xf78016fc>
    174c:	88801415 	stw	r2,80(r17)
    1750:	003fd206 	br	169c <__alt_mem_onchip_memory+0xf780169c>
    1754:	28c00f17 	ldw	r3,60(r5)
    1758:	00ffb316 	blt	zero,r3,1628 <__alt_mem_onchip_memory+0xf7801628>
    175c:	003fd706 	br	16bc <__alt_mem_onchip_memory+0xf78016bc>
    1760:	89400717 	ldw	r5,28(r17)
    1764:	000d883a 	mov	r6,zero
    1768:	01c00044 	movi	r7,1
    176c:	9809883a 	mov	r4,r19
    1770:	403ee83a 	callr	r8
    1774:	100d883a 	mov	r6,r2
    1778:	00bfffc4 	movi	r2,-1
    177c:	30801426 	beq	r6,r2,17d0 <__sflush_r+0x1e4>
    1780:	8880030b 	ldhu	r2,12(r17)
    1784:	8a000a17 	ldw	r8,40(r17)
    1788:	003fae06 	br	1644 <__alt_mem_onchip_memory+0xf7801644>
    178c:	98c00017 	ldw	r3,0(r19)
    1790:	183fba26 	beq	r3,zero,167c <__alt_mem_onchip_memory+0xf780167c>
    1794:	01000744 	movi	r4,29
    1798:	19000626 	beq	r3,r4,17b4 <__sflush_r+0x1c8>
    179c:	01000584 	movi	r4,22
    17a0:	19000426 	beq	r3,r4,17b4 <__sflush_r+0x1c8>
    17a4:	88c0030b 	ldhu	r3,12(r17)
    17a8:	18c01014 	ori	r3,r3,64
    17ac:	88c0030d 	sth	r3,12(r17)
    17b0:	003fc306 	br	16c0 <__alt_mem_onchip_memory+0xf78016c0>
    17b4:	8880030b 	ldhu	r2,12(r17)
    17b8:	88c00417 	ldw	r3,16(r17)
    17bc:	88000115 	stw	zero,4(r17)
    17c0:	10bdffcc 	andi	r2,r2,63487
    17c4:	8880030d 	sth	r2,12(r17)
    17c8:	88c00015 	stw	r3,0(r17)
    17cc:	003fb306 	br	169c <__alt_mem_onchip_memory+0xf780169c>
    17d0:	98800017 	ldw	r2,0(r19)
    17d4:	103fea26 	beq	r2,zero,1780 <__alt_mem_onchip_memory+0xf7801780>
    17d8:	00c00744 	movi	r3,29
    17dc:	10c00226 	beq	r2,r3,17e8 <__sflush_r+0x1fc>
    17e0:	00c00584 	movi	r3,22
    17e4:	10c0031e 	bne	r2,r3,17f4 <__sflush_r+0x208>
    17e8:	9c000015 	stw	r16,0(r19)
    17ec:	0005883a 	mov	r2,zero
    17f0:	003fb306 	br	16c0 <__alt_mem_onchip_memory+0xf78016c0>
    17f4:	88c0030b 	ldhu	r3,12(r17)
    17f8:	3005883a 	mov	r2,r6
    17fc:	18c01014 	ori	r3,r3,64
    1800:	88c0030d 	sth	r3,12(r17)
    1804:	003fae06 	br	16c0 <__alt_mem_onchip_memory+0xf78016c0>

00001808 <_fflush_r>:
    1808:	defffd04 	addi	sp,sp,-12
    180c:	dc000115 	stw	r16,4(sp)
    1810:	dfc00215 	stw	ra,8(sp)
    1814:	2021883a 	mov	r16,r4
    1818:	20000226 	beq	r4,zero,1824 <_fflush_r+0x1c>
    181c:	20800e17 	ldw	r2,56(r4)
    1820:	10000c26 	beq	r2,zero,1854 <_fflush_r+0x4c>
    1824:	2880030f 	ldh	r2,12(r5)
    1828:	1000051e 	bne	r2,zero,1840 <_fflush_r+0x38>
    182c:	0005883a 	mov	r2,zero
    1830:	dfc00217 	ldw	ra,8(sp)
    1834:	dc000117 	ldw	r16,4(sp)
    1838:	dec00304 	addi	sp,sp,12
    183c:	f800283a 	ret
    1840:	8009883a 	mov	r4,r16
    1844:	dfc00217 	ldw	ra,8(sp)
    1848:	dc000117 	ldw	r16,4(sp)
    184c:	dec00304 	addi	sp,sp,12
    1850:	00015ec1 	jmpi	15ec <__sflush_r>
    1854:	d9400015 	stw	r5,0(sp)
    1858:	0001be40 	call	1be4 <__sinit>
    185c:	d9400017 	ldw	r5,0(sp)
    1860:	003ff006 	br	1824 <__alt_mem_onchip_memory+0xf7801824>

00001864 <fflush>:
    1864:	20000526 	beq	r4,zero,187c <fflush+0x18>
    1868:	008000b4 	movhi	r2,2
    186c:	10931a04 	addi	r2,r2,19560
    1870:	200b883a 	mov	r5,r4
    1874:	11000017 	ldw	r4,0(r2)
    1878:	00018081 	jmpi	1808 <_fflush_r>
    187c:	008000b4 	movhi	r2,2
    1880:	10931904 	addi	r2,r2,19556
    1884:	11000017 	ldw	r4,0(r2)
    1888:	01400034 	movhi	r5,0
    188c:	29460204 	addi	r5,r5,6152
    1890:	00027601 	jmpi	2760 <_fwalk_reent>

00001894 <__fp_unlock>:
    1894:	0005883a 	mov	r2,zero
    1898:	f800283a 	ret

0000189c <_cleanup_r>:
    189c:	01400034 	movhi	r5,0
    18a0:	29453a04 	addi	r5,r5,5352
    18a4:	00027601 	jmpi	2760 <_fwalk_reent>

000018a8 <__sinit.part.1>:
    18a8:	defff704 	addi	sp,sp,-36
    18ac:	00c00034 	movhi	r3,0
    18b0:	dfc00815 	stw	ra,32(sp)
    18b4:	ddc00715 	stw	r23,28(sp)
    18b8:	dd800615 	stw	r22,24(sp)
    18bc:	dd400515 	stw	r21,20(sp)
    18c0:	dd000415 	stw	r20,16(sp)
    18c4:	dcc00315 	stw	r19,12(sp)
    18c8:	dc800215 	stw	r18,8(sp)
    18cc:	dc400115 	stw	r17,4(sp)
    18d0:	dc000015 	stw	r16,0(sp)
    18d4:	18c62704 	addi	r3,r3,6300
    18d8:	24000117 	ldw	r16,4(r4)
    18dc:	20c00f15 	stw	r3,60(r4)
    18e0:	2080bb04 	addi	r2,r4,748
    18e4:	00c000c4 	movi	r3,3
    18e8:	20c0b915 	stw	r3,740(r4)
    18ec:	2080ba15 	stw	r2,744(r4)
    18f0:	2000b815 	stw	zero,736(r4)
    18f4:	05c00204 	movi	r23,8
    18f8:	00800104 	movi	r2,4
    18fc:	2025883a 	mov	r18,r4
    1900:	b80d883a 	mov	r6,r23
    1904:	81001704 	addi	r4,r16,92
    1908:	000b883a 	mov	r5,zero
    190c:	80000015 	stw	zero,0(r16)
    1910:	80000115 	stw	zero,4(r16)
    1914:	80000215 	stw	zero,8(r16)
    1918:	8080030d 	sth	r2,12(r16)
    191c:	80001915 	stw	zero,100(r16)
    1920:	8000038d 	sth	zero,14(r16)
    1924:	80000415 	stw	zero,16(r16)
    1928:	80000515 	stw	zero,20(r16)
    192c:	80000615 	stw	zero,24(r16)
    1930:	00033e40 	call	33e4 <memset>
    1934:	05800034 	movhi	r22,0
    1938:	94400217 	ldw	r17,8(r18)
    193c:	05400034 	movhi	r21,0
    1940:	05000034 	movhi	r20,0
    1944:	04c00034 	movhi	r19,0
    1948:	b58e7404 	addi	r22,r22,14800
    194c:	ad4e8b04 	addi	r21,r21,14892
    1950:	a50eaa04 	addi	r20,r20,15016
    1954:	9ccec104 	addi	r19,r19,15108
    1958:	85800815 	stw	r22,32(r16)
    195c:	85400915 	stw	r21,36(r16)
    1960:	85000a15 	stw	r20,40(r16)
    1964:	84c00b15 	stw	r19,44(r16)
    1968:	84000715 	stw	r16,28(r16)
    196c:	00800284 	movi	r2,10
    1970:	8880030d 	sth	r2,12(r17)
    1974:	00800044 	movi	r2,1
    1978:	b80d883a 	mov	r6,r23
    197c:	89001704 	addi	r4,r17,92
    1980:	000b883a 	mov	r5,zero
    1984:	88000015 	stw	zero,0(r17)
    1988:	88000115 	stw	zero,4(r17)
    198c:	88000215 	stw	zero,8(r17)
    1990:	88001915 	stw	zero,100(r17)
    1994:	8880038d 	sth	r2,14(r17)
    1998:	88000415 	stw	zero,16(r17)
    199c:	88000515 	stw	zero,20(r17)
    19a0:	88000615 	stw	zero,24(r17)
    19a4:	00033e40 	call	33e4 <memset>
    19a8:	94000317 	ldw	r16,12(r18)
    19ac:	00800484 	movi	r2,18
    19b0:	8c400715 	stw	r17,28(r17)
    19b4:	8d800815 	stw	r22,32(r17)
    19b8:	8d400915 	stw	r21,36(r17)
    19bc:	8d000a15 	stw	r20,40(r17)
    19c0:	8cc00b15 	stw	r19,44(r17)
    19c4:	8080030d 	sth	r2,12(r16)
    19c8:	00800084 	movi	r2,2
    19cc:	80000015 	stw	zero,0(r16)
    19d0:	80000115 	stw	zero,4(r16)
    19d4:	80000215 	stw	zero,8(r16)
    19d8:	80001915 	stw	zero,100(r16)
    19dc:	8080038d 	sth	r2,14(r16)
    19e0:	80000415 	stw	zero,16(r16)
    19e4:	80000515 	stw	zero,20(r16)
    19e8:	80000615 	stw	zero,24(r16)
    19ec:	b80d883a 	mov	r6,r23
    19f0:	000b883a 	mov	r5,zero
    19f4:	81001704 	addi	r4,r16,92
    19f8:	00033e40 	call	33e4 <memset>
    19fc:	00800044 	movi	r2,1
    1a00:	84000715 	stw	r16,28(r16)
    1a04:	85800815 	stw	r22,32(r16)
    1a08:	85400915 	stw	r21,36(r16)
    1a0c:	85000a15 	stw	r20,40(r16)
    1a10:	84c00b15 	stw	r19,44(r16)
    1a14:	90800e15 	stw	r2,56(r18)
    1a18:	dfc00817 	ldw	ra,32(sp)
    1a1c:	ddc00717 	ldw	r23,28(sp)
    1a20:	dd800617 	ldw	r22,24(sp)
    1a24:	dd400517 	ldw	r21,20(sp)
    1a28:	dd000417 	ldw	r20,16(sp)
    1a2c:	dcc00317 	ldw	r19,12(sp)
    1a30:	dc800217 	ldw	r18,8(sp)
    1a34:	dc400117 	ldw	r17,4(sp)
    1a38:	dc000017 	ldw	r16,0(sp)
    1a3c:	dec00904 	addi	sp,sp,36
    1a40:	f800283a 	ret

00001a44 <__fp_lock>:
    1a44:	0005883a 	mov	r2,zero
    1a48:	f800283a 	ret

00001a4c <__sfmoreglue>:
    1a4c:	defffc04 	addi	sp,sp,-16
    1a50:	dc400115 	stw	r17,4(sp)
    1a54:	2c7fffc4 	addi	r17,r5,-1
    1a58:	8c401a24 	muli	r17,r17,104
    1a5c:	dc800215 	stw	r18,8(sp)
    1a60:	2825883a 	mov	r18,r5
    1a64:	89401d04 	addi	r5,r17,116
    1a68:	dc000015 	stw	r16,0(sp)
    1a6c:	dfc00315 	stw	ra,12(sp)
    1a70:	0002bd80 	call	2bd8 <_malloc_r>
    1a74:	1021883a 	mov	r16,r2
    1a78:	10000726 	beq	r2,zero,1a98 <__sfmoreglue+0x4c>
    1a7c:	11000304 	addi	r4,r2,12
    1a80:	10000015 	stw	zero,0(r2)
    1a84:	14800115 	stw	r18,4(r2)
    1a88:	11000215 	stw	r4,8(r2)
    1a8c:	89801a04 	addi	r6,r17,104
    1a90:	000b883a 	mov	r5,zero
    1a94:	00033e40 	call	33e4 <memset>
    1a98:	8005883a 	mov	r2,r16
    1a9c:	dfc00317 	ldw	ra,12(sp)
    1aa0:	dc800217 	ldw	r18,8(sp)
    1aa4:	dc400117 	ldw	r17,4(sp)
    1aa8:	dc000017 	ldw	r16,0(sp)
    1aac:	dec00404 	addi	sp,sp,16
    1ab0:	f800283a 	ret

00001ab4 <__sfp>:
    1ab4:	defffb04 	addi	sp,sp,-20
    1ab8:	dc000015 	stw	r16,0(sp)
    1abc:	040000b4 	movhi	r16,2
    1ac0:	84131904 	addi	r16,r16,19556
    1ac4:	dcc00315 	stw	r19,12(sp)
    1ac8:	2027883a 	mov	r19,r4
    1acc:	81000017 	ldw	r4,0(r16)
    1ad0:	dfc00415 	stw	ra,16(sp)
    1ad4:	dc800215 	stw	r18,8(sp)
    1ad8:	20800e17 	ldw	r2,56(r4)
    1adc:	dc400115 	stw	r17,4(sp)
    1ae0:	1000021e 	bne	r2,zero,1aec <__sfp+0x38>
    1ae4:	00018a80 	call	18a8 <__sinit.part.1>
    1ae8:	81000017 	ldw	r4,0(r16)
    1aec:	2480b804 	addi	r18,r4,736
    1af0:	047fffc4 	movi	r17,-1
    1af4:	91000117 	ldw	r4,4(r18)
    1af8:	94000217 	ldw	r16,8(r18)
    1afc:	213fffc4 	addi	r4,r4,-1
    1b00:	20000a16 	blt	r4,zero,1b2c <__sfp+0x78>
    1b04:	8080030f 	ldh	r2,12(r16)
    1b08:	10000c26 	beq	r2,zero,1b3c <__sfp+0x88>
    1b0c:	80c01d04 	addi	r3,r16,116
    1b10:	00000206 	br	1b1c <__sfp+0x68>
    1b14:	18bfe60f 	ldh	r2,-104(r3)
    1b18:	10000826 	beq	r2,zero,1b3c <__sfp+0x88>
    1b1c:	213fffc4 	addi	r4,r4,-1
    1b20:	1c3ffd04 	addi	r16,r3,-12
    1b24:	18c01a04 	addi	r3,r3,104
    1b28:	247ffa1e 	bne	r4,r17,1b14 <__alt_mem_onchip_memory+0xf7801b14>
    1b2c:	90800017 	ldw	r2,0(r18)
    1b30:	10001d26 	beq	r2,zero,1ba8 <__sfp+0xf4>
    1b34:	1025883a 	mov	r18,r2
    1b38:	003fee06 	br	1af4 <__alt_mem_onchip_memory+0xf7801af4>
    1b3c:	00bfffc4 	movi	r2,-1
    1b40:	8080038d 	sth	r2,14(r16)
    1b44:	00800044 	movi	r2,1
    1b48:	8080030d 	sth	r2,12(r16)
    1b4c:	80001915 	stw	zero,100(r16)
    1b50:	80000015 	stw	zero,0(r16)
    1b54:	80000215 	stw	zero,8(r16)
    1b58:	80000115 	stw	zero,4(r16)
    1b5c:	80000415 	stw	zero,16(r16)
    1b60:	80000515 	stw	zero,20(r16)
    1b64:	80000615 	stw	zero,24(r16)
    1b68:	01800204 	movi	r6,8
    1b6c:	000b883a 	mov	r5,zero
    1b70:	81001704 	addi	r4,r16,92
    1b74:	00033e40 	call	33e4 <memset>
    1b78:	8005883a 	mov	r2,r16
    1b7c:	80000c15 	stw	zero,48(r16)
    1b80:	80000d15 	stw	zero,52(r16)
    1b84:	80001115 	stw	zero,68(r16)
    1b88:	80001215 	stw	zero,72(r16)
    1b8c:	dfc00417 	ldw	ra,16(sp)
    1b90:	dcc00317 	ldw	r19,12(sp)
    1b94:	dc800217 	ldw	r18,8(sp)
    1b98:	dc400117 	ldw	r17,4(sp)
    1b9c:	dc000017 	ldw	r16,0(sp)
    1ba0:	dec00504 	addi	sp,sp,20
    1ba4:	f800283a 	ret
    1ba8:	01400104 	movi	r5,4
    1bac:	9809883a 	mov	r4,r19
    1bb0:	0001a4c0 	call	1a4c <__sfmoreglue>
    1bb4:	90800015 	stw	r2,0(r18)
    1bb8:	103fde1e 	bne	r2,zero,1b34 <__alt_mem_onchip_memory+0xf7801b34>
    1bbc:	00800304 	movi	r2,12
    1bc0:	98800015 	stw	r2,0(r19)
    1bc4:	0005883a 	mov	r2,zero
    1bc8:	003ff006 	br	1b8c <__alt_mem_onchip_memory+0xf7801b8c>

00001bcc <_cleanup>:
    1bcc:	008000b4 	movhi	r2,2
    1bd0:	10931904 	addi	r2,r2,19556
    1bd4:	11000017 	ldw	r4,0(r2)
    1bd8:	01400034 	movhi	r5,0
    1bdc:	29453a04 	addi	r5,r5,5352
    1be0:	00027601 	jmpi	2760 <_fwalk_reent>

00001be4 <__sinit>:
    1be4:	20800e17 	ldw	r2,56(r4)
    1be8:	10000126 	beq	r2,zero,1bf0 <__sinit+0xc>
    1bec:	f800283a 	ret
    1bf0:	00018a81 	jmpi	18a8 <__sinit.part.1>

00001bf4 <__sfp_lock_acquire>:
    1bf4:	f800283a 	ret

00001bf8 <__sfp_lock_release>:
    1bf8:	f800283a 	ret

00001bfc <__sinit_lock_acquire>:
    1bfc:	f800283a 	ret

00001c00 <__sinit_lock_release>:
    1c00:	f800283a 	ret

00001c04 <__fp_lock_all>:
    1c04:	008000b4 	movhi	r2,2
    1c08:	10931a04 	addi	r2,r2,19560
    1c0c:	11000017 	ldw	r4,0(r2)
    1c10:	01400034 	movhi	r5,0
    1c14:	29469104 	addi	r5,r5,6724
    1c18:	000269c1 	jmpi	269c <_fwalk>

00001c1c <__fp_unlock_all>:
    1c1c:	008000b4 	movhi	r2,2
    1c20:	10931a04 	addi	r2,r2,19560
    1c24:	11000017 	ldw	r4,0(r2)
    1c28:	01400034 	movhi	r5,0
    1c2c:	29462504 	addi	r5,r5,6292
    1c30:	000269c1 	jmpi	269c <_fwalk>

00001c34 <_fopen_r>:
    1c34:	defffa04 	addi	sp,sp,-24
    1c38:	3005883a 	mov	r2,r6
    1c3c:	dcc00415 	stw	r19,16(sp)
    1c40:	d80d883a 	mov	r6,sp
    1c44:	2827883a 	mov	r19,r5
    1c48:	100b883a 	mov	r5,r2
    1c4c:	dc800315 	stw	r18,12(sp)
    1c50:	dfc00515 	stw	ra,20(sp)
    1c54:	dc400215 	stw	r17,8(sp)
    1c58:	dc000115 	stw	r16,4(sp)
    1c5c:	2025883a 	mov	r18,r4
    1c60:	0009c5c0 	call	9c5c <__sflags>
    1c64:	10002726 	beq	r2,zero,1d04 <_fopen_r+0xd0>
    1c68:	9009883a 	mov	r4,r18
    1c6c:	1023883a 	mov	r17,r2
    1c70:	0001ab40 	call	1ab4 <__sfp>
    1c74:	1021883a 	mov	r16,r2
    1c78:	10002226 	beq	r2,zero,1d04 <_fopen_r+0xd0>
    1c7c:	d9800017 	ldw	r6,0(sp)
    1c80:	01c06d84 	movi	r7,438
    1c84:	980b883a 	mov	r5,r19
    1c88:	9009883a 	mov	r4,r18
    1c8c:	000350c0 	call	350c <_open_r>
    1c90:	10001916 	blt	r2,zero,1cf8 <_fopen_r+0xc4>
    1c94:	8080038d 	sth	r2,14(r16)
    1c98:	00800034 	movhi	r2,0
    1c9c:	108e7404 	addi	r2,r2,14800
    1ca0:	80800815 	stw	r2,32(r16)
    1ca4:	00800034 	movhi	r2,0
    1ca8:	108e8b04 	addi	r2,r2,14892
    1cac:	80800915 	stw	r2,36(r16)
    1cb0:	00800034 	movhi	r2,0
    1cb4:	108eaa04 	addi	r2,r2,15016
    1cb8:	80800a15 	stw	r2,40(r16)
    1cbc:	00800034 	movhi	r2,0
    1cc0:	108ec104 	addi	r2,r2,15108
    1cc4:	8440030d 	sth	r17,12(r16)
    1cc8:	84000715 	stw	r16,28(r16)
    1ccc:	80800b15 	stw	r2,44(r16)
    1cd0:	8c40400c 	andi	r17,r17,256
    1cd4:	88000d1e 	bne	r17,zero,1d0c <_fopen_r+0xd8>
    1cd8:	8005883a 	mov	r2,r16
    1cdc:	dfc00517 	ldw	ra,20(sp)
    1ce0:	dcc00417 	ldw	r19,16(sp)
    1ce4:	dc800317 	ldw	r18,12(sp)
    1ce8:	dc400217 	ldw	r17,8(sp)
    1cec:	dc000117 	ldw	r16,4(sp)
    1cf0:	dec00604 	addi	sp,sp,24
    1cf4:	f800283a 	ret
    1cf8:	0001bf40 	call	1bf4 <__sfp_lock_acquire>
    1cfc:	8000030d 	sth	zero,12(r16)
    1d00:	0001bf80 	call	1bf8 <__sfp_lock_release>
    1d04:	0005883a 	mov	r2,zero
    1d08:	003ff406 	br	1cdc <__alt_mem_onchip_memory+0xf7801cdc>
    1d0c:	01c00084 	movi	r7,2
    1d10:	000d883a 	mov	r6,zero
    1d14:	800b883a 	mov	r5,r16
    1d18:	9009883a 	mov	r4,r18
    1d1c:	00021c00 	call	21c0 <_fseek_r>
    1d20:	8005883a 	mov	r2,r16
    1d24:	003fed06 	br	1cdc <__alt_mem_onchip_memory+0xf7801cdc>

00001d28 <fopen>:
    1d28:	008000b4 	movhi	r2,2
    1d2c:	10931a04 	addi	r2,r2,19560
    1d30:	280d883a 	mov	r6,r5
    1d34:	200b883a 	mov	r5,r4
    1d38:	11000017 	ldw	r4,0(r2)
    1d3c:	0001c341 	jmpi	1c34 <_fopen_r>

00001d40 <_fprintf_r>:
    1d40:	defffe04 	addi	sp,sp,-8
    1d44:	2809883a 	mov	r4,r5
    1d48:	300b883a 	mov	r5,r6
    1d4c:	dfc00015 	stw	ra,0(sp)
    1d50:	d9c00115 	stw	r7,4(sp)
    1d54:	d9800104 	addi	r6,sp,4
    1d58:	0007f740 	call	7f74 <__vfprintf_internal>
    1d5c:	dfc00017 	ldw	ra,0(sp)
    1d60:	dec00204 	addi	sp,sp,8
    1d64:	f800283a 	ret

00001d68 <fprintf>:
    1d68:	defffd04 	addi	sp,sp,-12
    1d6c:	dfc00015 	stw	ra,0(sp)
    1d70:	d9800115 	stw	r6,4(sp)
    1d74:	d9c00215 	stw	r7,8(sp)
    1d78:	d9800104 	addi	r6,sp,4
    1d7c:	0007f740 	call	7f74 <__vfprintf_internal>
    1d80:	dfc00017 	ldw	ra,0(sp)
    1d84:	dec00304 	addi	sp,sp,12
    1d88:	f800283a 	ret

00001d8c <_malloc_trim_r>:
    1d8c:	defffb04 	addi	sp,sp,-20
    1d90:	dcc00315 	stw	r19,12(sp)
    1d94:	04c000b4 	movhi	r19,2
    1d98:	dc800215 	stw	r18,8(sp)
    1d9c:	dc400115 	stw	r17,4(sp)
    1da0:	dc000015 	stw	r16,0(sp)
    1da4:	dfc00415 	stw	ra,16(sp)
    1da8:	2821883a 	mov	r16,r5
    1dac:	9ccc6904 	addi	r19,r19,12708
    1db0:	2025883a 	mov	r18,r4
    1db4:	0012f800 	call	12f80 <__malloc_lock>
    1db8:	98800217 	ldw	r2,8(r19)
    1dbc:	14400117 	ldw	r17,4(r2)
    1dc0:	00bfff04 	movi	r2,-4
    1dc4:	88a2703a 	and	r17,r17,r2
    1dc8:	8c21c83a 	sub	r16,r17,r16
    1dcc:	8403fbc4 	addi	r16,r16,4079
    1dd0:	8020d33a 	srli	r16,r16,12
    1dd4:	0083ffc4 	movi	r2,4095
    1dd8:	843fffc4 	addi	r16,r16,-1
    1ddc:	8020933a 	slli	r16,r16,12
    1de0:	1400060e 	bge	r2,r16,1dfc <_malloc_trim_r+0x70>
    1de4:	000b883a 	mov	r5,zero
    1de8:	9009883a 	mov	r4,r18
    1dec:	00038b80 	call	38b8 <_sbrk_r>
    1df0:	98c00217 	ldw	r3,8(r19)
    1df4:	1c47883a 	add	r3,r3,r17
    1df8:	10c00a26 	beq	r2,r3,1e24 <_malloc_trim_r+0x98>
    1dfc:	9009883a 	mov	r4,r18
    1e00:	00130a00 	call	130a0 <__malloc_unlock>
    1e04:	0005883a 	mov	r2,zero
    1e08:	dfc00417 	ldw	ra,16(sp)
    1e0c:	dcc00317 	ldw	r19,12(sp)
    1e10:	dc800217 	ldw	r18,8(sp)
    1e14:	dc400117 	ldw	r17,4(sp)
    1e18:	dc000017 	ldw	r16,0(sp)
    1e1c:	dec00504 	addi	sp,sp,20
    1e20:	f800283a 	ret
    1e24:	040bc83a 	sub	r5,zero,r16
    1e28:	9009883a 	mov	r4,r18
    1e2c:	00038b80 	call	38b8 <_sbrk_r>
    1e30:	00ffffc4 	movi	r3,-1
    1e34:	10c00d26 	beq	r2,r3,1e6c <_malloc_trim_r+0xe0>
    1e38:	00c000b4 	movhi	r3,2
    1e3c:	18db6c04 	addi	r3,r3,28080
    1e40:	18800017 	ldw	r2,0(r3)
    1e44:	99000217 	ldw	r4,8(r19)
    1e48:	8c23c83a 	sub	r17,r17,r16
    1e4c:	8c400054 	ori	r17,r17,1
    1e50:	1421c83a 	sub	r16,r2,r16
    1e54:	24400115 	stw	r17,4(r4)
    1e58:	9009883a 	mov	r4,r18
    1e5c:	1c000015 	stw	r16,0(r3)
    1e60:	00130a00 	call	130a0 <__malloc_unlock>
    1e64:	00800044 	movi	r2,1
    1e68:	003fe706 	br	1e08 <__alt_mem_onchip_memory+0xf7801e08>
    1e6c:	000b883a 	mov	r5,zero
    1e70:	9009883a 	mov	r4,r18
    1e74:	00038b80 	call	38b8 <_sbrk_r>
    1e78:	99000217 	ldw	r4,8(r19)
    1e7c:	014003c4 	movi	r5,15
    1e80:	1107c83a 	sub	r3,r2,r4
    1e84:	28ffdd0e 	bge	r5,r3,1dfc <__alt_mem_onchip_memory+0xf7801dfc>
    1e88:	014000b4 	movhi	r5,2
    1e8c:	29531b04 	addi	r5,r5,19564
    1e90:	29400017 	ldw	r5,0(r5)
    1e94:	18c00054 	ori	r3,r3,1
    1e98:	20c00115 	stw	r3,4(r4)
    1e9c:	00c000b4 	movhi	r3,2
    1ea0:	1145c83a 	sub	r2,r2,r5
    1ea4:	18db6c04 	addi	r3,r3,28080
    1ea8:	18800015 	stw	r2,0(r3)
    1eac:	003fd306 	br	1dfc <__alt_mem_onchip_memory+0xf7801dfc>

00001eb0 <_free_r>:
    1eb0:	28004126 	beq	r5,zero,1fb8 <_free_r+0x108>
    1eb4:	defffd04 	addi	sp,sp,-12
    1eb8:	dc400115 	stw	r17,4(sp)
    1ebc:	dc000015 	stw	r16,0(sp)
    1ec0:	2023883a 	mov	r17,r4
    1ec4:	2821883a 	mov	r16,r5
    1ec8:	dfc00215 	stw	ra,8(sp)
    1ecc:	0012f800 	call	12f80 <__malloc_lock>
    1ed0:	81ffff17 	ldw	r7,-4(r16)
    1ed4:	00bfff84 	movi	r2,-2
    1ed8:	010000b4 	movhi	r4,2
    1edc:	81bffe04 	addi	r6,r16,-8
    1ee0:	3884703a 	and	r2,r7,r2
    1ee4:	210c6904 	addi	r4,r4,12708
    1ee8:	308b883a 	add	r5,r6,r2
    1eec:	2a400117 	ldw	r9,4(r5)
    1ef0:	22000217 	ldw	r8,8(r4)
    1ef4:	00ffff04 	movi	r3,-4
    1ef8:	48c6703a 	and	r3,r9,r3
    1efc:	2a005726 	beq	r5,r8,205c <_free_r+0x1ac>
    1f00:	28c00115 	stw	r3,4(r5)
    1f04:	39c0004c 	andi	r7,r7,1
    1f08:	3800091e 	bne	r7,zero,1f30 <_free_r+0x80>
    1f0c:	823ffe17 	ldw	r8,-8(r16)
    1f10:	22400204 	addi	r9,r4,8
    1f14:	320dc83a 	sub	r6,r6,r8
    1f18:	31c00217 	ldw	r7,8(r6)
    1f1c:	1205883a 	add	r2,r2,r8
    1f20:	3a406526 	beq	r7,r9,20b8 <_free_r+0x208>
    1f24:	32000317 	ldw	r8,12(r6)
    1f28:	3a000315 	stw	r8,12(r7)
    1f2c:	41c00215 	stw	r7,8(r8)
    1f30:	28cf883a 	add	r7,r5,r3
    1f34:	39c00117 	ldw	r7,4(r7)
    1f38:	39c0004c 	andi	r7,r7,1
    1f3c:	38003a26 	beq	r7,zero,2028 <_free_r+0x178>
    1f40:	10c00054 	ori	r3,r2,1
    1f44:	30c00115 	stw	r3,4(r6)
    1f48:	3087883a 	add	r3,r6,r2
    1f4c:	18800015 	stw	r2,0(r3)
    1f50:	00c07fc4 	movi	r3,511
    1f54:	18801936 	bltu	r3,r2,1fbc <_free_r+0x10c>
    1f58:	1004d0fa 	srli	r2,r2,3
    1f5c:	01c00044 	movi	r7,1
    1f60:	21400117 	ldw	r5,4(r4)
    1f64:	10c00044 	addi	r3,r2,1
    1f68:	18c7883a 	add	r3,r3,r3
    1f6c:	1005d0ba 	srai	r2,r2,2
    1f70:	18c7883a 	add	r3,r3,r3
    1f74:	18c7883a 	add	r3,r3,r3
    1f78:	1907883a 	add	r3,r3,r4
    1f7c:	3884983a 	sll	r2,r7,r2
    1f80:	19c00017 	ldw	r7,0(r3)
    1f84:	1a3ffe04 	addi	r8,r3,-8
    1f88:	1144b03a 	or	r2,r2,r5
    1f8c:	32000315 	stw	r8,12(r6)
    1f90:	31c00215 	stw	r7,8(r6)
    1f94:	20800115 	stw	r2,4(r4)
    1f98:	19800015 	stw	r6,0(r3)
    1f9c:	39800315 	stw	r6,12(r7)
    1fa0:	8809883a 	mov	r4,r17
    1fa4:	dfc00217 	ldw	ra,8(sp)
    1fa8:	dc400117 	ldw	r17,4(sp)
    1fac:	dc000017 	ldw	r16,0(sp)
    1fb0:	dec00304 	addi	sp,sp,12
    1fb4:	00130a01 	jmpi	130a0 <__malloc_unlock>
    1fb8:	f800283a 	ret
    1fbc:	100ad27a 	srli	r5,r2,9
    1fc0:	00c00104 	movi	r3,4
    1fc4:	19404a36 	bltu	r3,r5,20f0 <_free_r+0x240>
    1fc8:	100ad1ba 	srli	r5,r2,6
    1fcc:	28c00e44 	addi	r3,r5,57
    1fd0:	18c7883a 	add	r3,r3,r3
    1fd4:	29400e04 	addi	r5,r5,56
    1fd8:	18c7883a 	add	r3,r3,r3
    1fdc:	18c7883a 	add	r3,r3,r3
    1fe0:	1909883a 	add	r4,r3,r4
    1fe4:	20c00017 	ldw	r3,0(r4)
    1fe8:	01c000b4 	movhi	r7,2
    1fec:	213ffe04 	addi	r4,r4,-8
    1ff0:	39cc6904 	addi	r7,r7,12708
    1ff4:	20c04426 	beq	r4,r3,2108 <_free_r+0x258>
    1ff8:	01ffff04 	movi	r7,-4
    1ffc:	19400117 	ldw	r5,4(r3)
    2000:	29ca703a 	and	r5,r5,r7
    2004:	1140022e 	bgeu	r2,r5,2010 <_free_r+0x160>
    2008:	18c00217 	ldw	r3,8(r3)
    200c:	20fffb1e 	bne	r4,r3,1ffc <__alt_mem_onchip_memory+0xf7801ffc>
    2010:	19000317 	ldw	r4,12(r3)
    2014:	31000315 	stw	r4,12(r6)
    2018:	30c00215 	stw	r3,8(r6)
    201c:	21800215 	stw	r6,8(r4)
    2020:	19800315 	stw	r6,12(r3)
    2024:	003fde06 	br	1fa0 <__alt_mem_onchip_memory+0xf7801fa0>
    2028:	29c00217 	ldw	r7,8(r5)
    202c:	10c5883a 	add	r2,r2,r3
    2030:	00c000b4 	movhi	r3,2
    2034:	18cc6b04 	addi	r3,r3,12716
    2038:	38c03b26 	beq	r7,r3,2128 <_free_r+0x278>
    203c:	2a000317 	ldw	r8,12(r5)
    2040:	11400054 	ori	r5,r2,1
    2044:	3087883a 	add	r3,r6,r2
    2048:	3a000315 	stw	r8,12(r7)
    204c:	41c00215 	stw	r7,8(r8)
    2050:	31400115 	stw	r5,4(r6)
    2054:	18800015 	stw	r2,0(r3)
    2058:	003fbd06 	br	1f50 <__alt_mem_onchip_memory+0xf7801f50>
    205c:	39c0004c 	andi	r7,r7,1
    2060:	10c5883a 	add	r2,r2,r3
    2064:	3800071e 	bne	r7,zero,2084 <_free_r+0x1d4>
    2068:	81fffe17 	ldw	r7,-8(r16)
    206c:	31cdc83a 	sub	r6,r6,r7
    2070:	30c00317 	ldw	r3,12(r6)
    2074:	31400217 	ldw	r5,8(r6)
    2078:	11c5883a 	add	r2,r2,r7
    207c:	28c00315 	stw	r3,12(r5)
    2080:	19400215 	stw	r5,8(r3)
    2084:	10c00054 	ori	r3,r2,1
    2088:	30c00115 	stw	r3,4(r6)
    208c:	00c000b4 	movhi	r3,2
    2090:	18d31c04 	addi	r3,r3,19568
    2094:	18c00017 	ldw	r3,0(r3)
    2098:	21800215 	stw	r6,8(r4)
    209c:	10ffc036 	bltu	r2,r3,1fa0 <__alt_mem_onchip_memory+0xf7801fa0>
    20a0:	008000b4 	movhi	r2,2
    20a4:	109b4804 	addi	r2,r2,27936
    20a8:	11400017 	ldw	r5,0(r2)
    20ac:	8809883a 	mov	r4,r17
    20b0:	0001d8c0 	call	1d8c <_malloc_trim_r>
    20b4:	003fba06 	br	1fa0 <__alt_mem_onchip_memory+0xf7801fa0>
    20b8:	28c9883a 	add	r4,r5,r3
    20bc:	21000117 	ldw	r4,4(r4)
    20c0:	2100004c 	andi	r4,r4,1
    20c4:	2000391e 	bne	r4,zero,21ac <_free_r+0x2fc>
    20c8:	29c00217 	ldw	r7,8(r5)
    20cc:	29000317 	ldw	r4,12(r5)
    20d0:	1885883a 	add	r2,r3,r2
    20d4:	10c00054 	ori	r3,r2,1
    20d8:	39000315 	stw	r4,12(r7)
    20dc:	21c00215 	stw	r7,8(r4)
    20e0:	30c00115 	stw	r3,4(r6)
    20e4:	308d883a 	add	r6,r6,r2
    20e8:	30800015 	stw	r2,0(r6)
    20ec:	003fac06 	br	1fa0 <__alt_mem_onchip_memory+0xf7801fa0>
    20f0:	00c00504 	movi	r3,20
    20f4:	19401536 	bltu	r3,r5,214c <_free_r+0x29c>
    20f8:	28c01704 	addi	r3,r5,92
    20fc:	18c7883a 	add	r3,r3,r3
    2100:	294016c4 	addi	r5,r5,91
    2104:	003fb406 	br	1fd8 <__alt_mem_onchip_memory+0xf7801fd8>
    2108:	280bd0ba 	srai	r5,r5,2
    210c:	00c00044 	movi	r3,1
    2110:	38800117 	ldw	r2,4(r7)
    2114:	194a983a 	sll	r5,r3,r5
    2118:	2007883a 	mov	r3,r4
    211c:	2884b03a 	or	r2,r5,r2
    2120:	38800115 	stw	r2,4(r7)
    2124:	003fbb06 	br	2014 <__alt_mem_onchip_memory+0xf7802014>
    2128:	21800515 	stw	r6,20(r4)
    212c:	21800415 	stw	r6,16(r4)
    2130:	10c00054 	ori	r3,r2,1
    2134:	31c00315 	stw	r7,12(r6)
    2138:	31c00215 	stw	r7,8(r6)
    213c:	30c00115 	stw	r3,4(r6)
    2140:	308d883a 	add	r6,r6,r2
    2144:	30800015 	stw	r2,0(r6)
    2148:	003f9506 	br	1fa0 <__alt_mem_onchip_memory+0xf7801fa0>
    214c:	00c01504 	movi	r3,84
    2150:	19400536 	bltu	r3,r5,2168 <_free_r+0x2b8>
    2154:	100ad33a 	srli	r5,r2,12
    2158:	28c01bc4 	addi	r3,r5,111
    215c:	18c7883a 	add	r3,r3,r3
    2160:	29401b84 	addi	r5,r5,110
    2164:	003f9c06 	br	1fd8 <__alt_mem_onchip_memory+0xf7801fd8>
    2168:	00c05504 	movi	r3,340
    216c:	19400536 	bltu	r3,r5,2184 <_free_r+0x2d4>
    2170:	100ad3fa 	srli	r5,r2,15
    2174:	28c01e04 	addi	r3,r5,120
    2178:	18c7883a 	add	r3,r3,r3
    217c:	29401dc4 	addi	r5,r5,119
    2180:	003f9506 	br	1fd8 <__alt_mem_onchip_memory+0xf7801fd8>
    2184:	00c15504 	movi	r3,1364
    2188:	19400536 	bltu	r3,r5,21a0 <_free_r+0x2f0>
    218c:	100ad4ba 	srli	r5,r2,18
    2190:	28c01f44 	addi	r3,r5,125
    2194:	18c7883a 	add	r3,r3,r3
    2198:	29401f04 	addi	r5,r5,124
    219c:	003f8e06 	br	1fd8 <__alt_mem_onchip_memory+0xf7801fd8>
    21a0:	00c03f84 	movi	r3,254
    21a4:	01401f84 	movi	r5,126
    21a8:	003f8b06 	br	1fd8 <__alt_mem_onchip_memory+0xf7801fd8>
    21ac:	10c00054 	ori	r3,r2,1
    21b0:	30c00115 	stw	r3,4(r6)
    21b4:	308d883a 	add	r6,r6,r2
    21b8:	30800015 	stw	r2,0(r6)
    21bc:	003f7806 	br	1fa0 <__alt_mem_onchip_memory+0xf7801fa0>

000021c0 <_fseek_r>:
    21c0:	00021e01 	jmpi	21e0 <_fseeko_r>

000021c4 <fseek>:
    21c4:	008000b4 	movhi	r2,2
    21c8:	10931a04 	addi	r2,r2,19560
    21cc:	300f883a 	mov	r7,r6
    21d0:	280d883a 	mov	r6,r5
    21d4:	200b883a 	mov	r5,r4
    21d8:	11000017 	ldw	r4,0(r2)
    21dc:	00021e01 	jmpi	21e0 <_fseeko_r>

000021e0 <_fseeko_r>:
    21e0:	deffe804 	addi	sp,sp,-96
    21e4:	dd401415 	stw	r21,80(sp)
    21e8:	dc801115 	stw	r18,68(sp)
    21ec:	dc401015 	stw	r17,64(sp)
    21f0:	dc000f15 	stw	r16,60(sp)
    21f4:	dfc01715 	stw	ra,92(sp)
    21f8:	ddc01615 	stw	r23,88(sp)
    21fc:	dd801515 	stw	r22,84(sp)
    2200:	dd001315 	stw	r20,76(sp)
    2204:	dcc01215 	stw	r19,72(sp)
    2208:	2023883a 	mov	r17,r4
    220c:	2821883a 	mov	r16,r5
    2210:	302b883a 	mov	r21,r6
    2214:	3825883a 	mov	r18,r7
    2218:	20000226 	beq	r4,zero,2224 <_fseeko_r+0x44>
    221c:	20800e17 	ldw	r2,56(r4)
    2220:	10005a26 	beq	r2,zero,238c <_fseeko_r+0x1ac>
    2224:	8080030b 	ldhu	r2,12(r16)
    2228:	00c04204 	movi	r3,264
    222c:	1080420c 	andi	r2,r2,264
    2230:	10c05b26 	beq	r2,r3,23a0 <_fseeko_r+0x1c0>
    2234:	85000a17 	ldw	r20,40(r16)
    2238:	a000f626 	beq	r20,zero,2614 <_fseeko_r+0x434>
    223c:	00800044 	movi	r2,1
    2240:	90803e26 	beq	r18,r2,233c <_fseeko_r+0x15c>
    2244:	00800084 	movi	r2,2
    2248:	90801026 	beq	r18,r2,228c <_fseeko_r+0xac>
    224c:	90000f26 	beq	r18,zero,228c <_fseeko_r+0xac>
    2250:	00800584 	movi	r2,22
    2254:	88800015 	stw	r2,0(r17)
    2258:	04ffffc4 	movi	r19,-1
    225c:	9805883a 	mov	r2,r19
    2260:	dfc01717 	ldw	ra,92(sp)
    2264:	ddc01617 	ldw	r23,88(sp)
    2268:	dd801517 	ldw	r22,84(sp)
    226c:	dd401417 	ldw	r21,80(sp)
    2270:	dd001317 	ldw	r20,76(sp)
    2274:	dcc01217 	ldw	r19,72(sp)
    2278:	dc801117 	ldw	r18,68(sp)
    227c:	dc401017 	ldw	r17,64(sp)
    2280:	dc000f17 	ldw	r16,60(sp)
    2284:	dec01804 	addi	sp,sp,96
    2288:	f800283a 	ret
    228c:	80800417 	ldw	r2,16(r16)
    2290:	002f883a 	mov	r23,zero
    2294:	0027883a 	mov	r19,zero
    2298:	1000cb26 	beq	r2,zero,25c8 <_fseeko_r+0x3e8>
    229c:	8080030b 	ldhu	r2,12(r16)
    22a0:	10c2068c 	andi	r3,r2,2074
    22a4:	1800071e 	bne	r3,zero,22c4 <_fseeko_r+0xe4>
    22a8:	10c1000c 	andi	r3,r2,1024
    22ac:	1800451e 	bne	r3,zero,23c4 <_fseeko_r+0x1e4>
    22b0:	00c00034 	movhi	r3,0
    22b4:	18ceaa04 	addi	r3,r3,15016
    22b8:	a0c0b726 	beq	r20,r3,2598 <_fseeko_r+0x3b8>
    22bc:	10820014 	ori	r2,r2,2048
    22c0:	8080030d 	sth	r2,12(r16)
    22c4:	800b883a 	mov	r5,r16
    22c8:	8809883a 	mov	r4,r17
    22cc:	00018080 	call	1808 <_fflush_r>
    22d0:	1027883a 	mov	r19,r2
    22d4:	103fe01e 	bne	r2,zero,2258 <__alt_mem_onchip_memory+0xf7802258>
    22d8:	81400717 	ldw	r5,28(r16)
    22dc:	900f883a 	mov	r7,r18
    22e0:	a80d883a 	mov	r6,r21
    22e4:	8809883a 	mov	r4,r17
    22e8:	a03ee83a 	callr	r20
    22ec:	00ffffc4 	movi	r3,-1
    22f0:	10ffd926 	beq	r2,r3,2258 <__alt_mem_onchip_memory+0xf7802258>
    22f4:	81400c17 	ldw	r5,48(r16)
    22f8:	28000526 	beq	r5,zero,2310 <_fseeko_r+0x130>
    22fc:	80801004 	addi	r2,r16,64
    2300:	28800226 	beq	r5,r2,230c <_fseeko_r+0x12c>
    2304:	8809883a 	mov	r4,r17
    2308:	0001eb00 	call	1eb0 <_free_r>
    230c:	80000c15 	stw	zero,48(r16)
    2310:	8080030b 	ldhu	r2,12(r16)
    2314:	80c00417 	ldw	r3,16(r16)
    2318:	80000115 	stw	zero,4(r16)
    231c:	10bdf7cc 	andi	r2,r2,63455
    2320:	80c00015 	stw	r3,0(r16)
    2324:	8080030d 	sth	r2,12(r16)
    2328:	01800204 	movi	r6,8
    232c:	000b883a 	mov	r5,zero
    2330:	81001704 	addi	r4,r16,92
    2334:	00033e40 	call	33e4 <memset>
    2338:	003fc806 	br	225c <__alt_mem_onchip_memory+0xf780225c>
    233c:	800b883a 	mov	r5,r16
    2340:	8809883a 	mov	r4,r17
    2344:	00018080 	call	1808 <_fflush_r>
    2348:	8080030b 	ldhu	r2,12(r16)
    234c:	10c4000c 	andi	r3,r2,4096
    2350:	18008726 	beq	r3,zero,2570 <_fseeko_r+0x390>
    2354:	84c01417 	ldw	r19,80(r16)
    2358:	10c0010c 	andi	r3,r2,4
    235c:	1800431e 	bne	r3,zero,246c <_fseeko_r+0x28c>
    2360:	1080020c 	andi	r2,r2,8
    2364:	10008026 	beq	r2,zero,2568 <_fseeko_r+0x388>
    2368:	80c00017 	ldw	r3,0(r16)
    236c:	80800417 	ldw	r2,16(r16)
    2370:	18000226 	beq	r3,zero,237c <_fseeko_r+0x19c>
    2374:	1887c83a 	sub	r3,r3,r2
    2378:	98e7883a 	add	r19,r19,r3
    237c:	aceb883a 	add	r21,r21,r19
    2380:	05c00044 	movi	r23,1
    2384:	0025883a 	mov	r18,zero
    2388:	003fc306 	br	2298 <__alt_mem_onchip_memory+0xf7802298>
    238c:	0001be40 	call	1be4 <__sinit>
    2390:	8080030b 	ldhu	r2,12(r16)
    2394:	00c04204 	movi	r3,264
    2398:	1080420c 	andi	r2,r2,264
    239c:	10ffa51e 	bne	r2,r3,2234 <__alt_mem_onchip_memory+0xf7802234>
    23a0:	800b883a 	mov	r5,r16
    23a4:	8809883a 	mov	r4,r17
    23a8:	00018080 	call	1808 <_fflush_r>
    23ac:	003fa106 	br	2234 <__alt_mem_onchip_memory+0xf7802234>
    23b0:	8080030b 	ldhu	r2,12(r16)
    23b4:	00c10004 	movi	r3,1024
    23b8:	80c01315 	stw	r3,76(r16)
    23bc:	10c4b03a 	or	r2,r2,r3
    23c0:	8080030d 	sth	r2,12(r16)
    23c4:	9000311e 	bne	r18,zero,248c <_fseeko_r+0x2ac>
    23c8:	a82d883a 	mov	r22,r21
    23cc:	b800371e 	bne	r23,zero,24ac <_fseeko_r+0x2cc>
    23d0:	8080030b 	ldhu	r2,12(r16)
    23d4:	1084000c 	andi	r2,r2,4096
    23d8:	10007f26 	beq	r2,zero,25d8 <_fseeko_r+0x3f8>
    23dc:	80801417 	ldw	r2,80(r16)
    23e0:	81800117 	ldw	r6,4(r16)
    23e4:	81400c17 	ldw	r5,48(r16)
    23e8:	11a7c83a 	sub	r19,r2,r6
    23ec:	28008226 	beq	r5,zero,25f8 <_fseeko_r+0x418>
    23f0:	81c00f17 	ldw	r7,60(r16)
    23f4:	99e7c83a 	sub	r19,r19,r7
    23f8:	81000e17 	ldw	r4,56(r16)
    23fc:	80800417 	ldw	r2,16(r16)
    2400:	99a7883a 	add	r19,r19,r6
    2404:	2087c83a 	sub	r3,r4,r2
    2408:	98e7c83a 	sub	r19,r19,r3
    240c:	38c7883a 	add	r3,r7,r3
    2410:	b4c02b16 	blt	r22,r19,24c0 <_fseeko_r+0x2e0>
    2414:	98c9883a 	add	r4,r19,r3
    2418:	b100292e 	bgeu	r22,r4,24c0 <_fseeko_r+0x2e0>
    241c:	b4e7c83a 	sub	r19,r22,r19
    2420:	14c5883a 	add	r2,r2,r19
    2424:	1ce7c83a 	sub	r19,r3,r19
    2428:	80800015 	stw	r2,0(r16)
    242c:	84c00115 	stw	r19,4(r16)
    2430:	28000526 	beq	r5,zero,2448 <_fseeko_r+0x268>
    2434:	80801004 	addi	r2,r16,64
    2438:	28800226 	beq	r5,r2,2444 <_fseeko_r+0x264>
    243c:	8809883a 	mov	r4,r17
    2440:	0001eb00 	call	1eb0 <_free_r>
    2444:	80000c15 	stw	zero,48(r16)
    2448:	8080030b 	ldhu	r2,12(r16)
    244c:	01800204 	movi	r6,8
    2450:	000b883a 	mov	r5,zero
    2454:	10bff7cc 	andi	r2,r2,65503
    2458:	8080030d 	sth	r2,12(r16)
    245c:	81001704 	addi	r4,r16,92
    2460:	00033e40 	call	33e4 <memset>
    2464:	0027883a 	mov	r19,zero
    2468:	003f7c06 	br	225c <__alt_mem_onchip_memory+0xf780225c>
    246c:	80c00117 	ldw	r3,4(r16)
    2470:	80800c17 	ldw	r2,48(r16)
    2474:	98e7c83a 	sub	r19,r19,r3
    2478:	10003b26 	beq	r2,zero,2568 <_fseeko_r+0x388>
    247c:	80c00f17 	ldw	r3,60(r16)
    2480:	80800417 	ldw	r2,16(r16)
    2484:	98e7c83a 	sub	r19,r19,r3
    2488:	003fbc06 	br	237c <__alt_mem_onchip_memory+0xf780237c>
    248c:	8140038f 	ldh	r5,14(r16)
    2490:	d80d883a 	mov	r6,sp
    2494:	8809883a 	mov	r4,r17
    2498:	00026400 	call	2640 <_fstat_r>
    249c:	103f891e 	bne	r2,zero,22c4 <__alt_mem_onchip_memory+0xf78022c4>
    24a0:	dd800417 	ldw	r22,16(sp)
    24a4:	adad883a 	add	r22,r21,r22
    24a8:	b83fc926 	beq	r23,zero,23d0 <__alt_mem_onchip_memory+0xf78023d0>
    24ac:	81400c17 	ldw	r5,48(r16)
    24b0:	81800117 	ldw	r6,4(r16)
    24b4:	28005026 	beq	r5,zero,25f8 <_fseeko_r+0x418>
    24b8:	81c00f17 	ldw	r7,60(r16)
    24bc:	003fce06 	br	23f8 <__alt_mem_onchip_memory+0xf78023f8>
    24c0:	84c01317 	ldw	r19,76(r16)
    24c4:	81400717 	ldw	r5,28(r16)
    24c8:	000f883a 	mov	r7,zero
    24cc:	04e7c83a 	sub	r19,zero,r19
    24d0:	9da6703a 	and	r19,r19,r22
    24d4:	980d883a 	mov	r6,r19
    24d8:	8809883a 	mov	r4,r17
    24dc:	a03ee83a 	callr	r20
    24e0:	00ffffc4 	movi	r3,-1
    24e4:	10ff7726 	beq	r2,r3,22c4 <__alt_mem_onchip_memory+0xf78022c4>
    24e8:	80800417 	ldw	r2,16(r16)
    24ec:	81400c17 	ldw	r5,48(r16)
    24f0:	80000115 	stw	zero,4(r16)
    24f4:	80800015 	stw	r2,0(r16)
    24f8:	28000526 	beq	r5,zero,2510 <_fseeko_r+0x330>
    24fc:	80801004 	addi	r2,r16,64
    2500:	28800226 	beq	r5,r2,250c <_fseeko_r+0x32c>
    2504:	8809883a 	mov	r4,r17
    2508:	0001eb00 	call	1eb0 <_free_r>
    250c:	80000c15 	stw	zero,48(r16)
    2510:	8080030b 	ldhu	r2,12(r16)
    2514:	b4e7c83a 	sub	r19,r22,r19
    2518:	10bff7cc 	andi	r2,r2,65503
    251c:	8080030d 	sth	r2,12(r16)
    2520:	98000b26 	beq	r19,zero,2550 <_fseeko_r+0x370>
    2524:	800b883a 	mov	r5,r16
    2528:	8809883a 	mov	r4,r17
    252c:	000365c0 	call	365c <__srefill_r>
    2530:	103f641e 	bne	r2,zero,22c4 <__alt_mem_onchip_memory+0xf78022c4>
    2534:	80800117 	ldw	r2,4(r16)
    2538:	14ff6236 	bltu	r2,r19,22c4 <__alt_mem_onchip_memory+0xf78022c4>
    253c:	80c00017 	ldw	r3,0(r16)
    2540:	14c5c83a 	sub	r2,r2,r19
    2544:	80800115 	stw	r2,4(r16)
    2548:	1ce7883a 	add	r19,r3,r19
    254c:	84c00015 	stw	r19,0(r16)
    2550:	01800204 	movi	r6,8
    2554:	000b883a 	mov	r5,zero
    2558:	81001704 	addi	r4,r16,92
    255c:	00033e40 	call	33e4 <memset>
    2560:	0027883a 	mov	r19,zero
    2564:	003f3d06 	br	225c <__alt_mem_onchip_memory+0xf780225c>
    2568:	80800417 	ldw	r2,16(r16)
    256c:	003f8306 	br	237c <__alt_mem_onchip_memory+0xf780237c>
    2570:	81400717 	ldw	r5,28(r16)
    2574:	900f883a 	mov	r7,r18
    2578:	000d883a 	mov	r6,zero
    257c:	8809883a 	mov	r4,r17
    2580:	a03ee83a 	callr	r20
    2584:	1027883a 	mov	r19,r2
    2588:	00bfffc4 	movi	r2,-1
    258c:	98bf3226 	beq	r19,r2,2258 <__alt_mem_onchip_memory+0xf7802258>
    2590:	8080030b 	ldhu	r2,12(r16)
    2594:	003f7006 	br	2358 <__alt_mem_onchip_memory+0xf7802358>
    2598:	8140038f 	ldh	r5,14(r16)
    259c:	283f4716 	blt	r5,zero,22bc <__alt_mem_onchip_memory+0xf78022bc>
    25a0:	d80d883a 	mov	r6,sp
    25a4:	8809883a 	mov	r4,r17
    25a8:	00026400 	call	2640 <_fstat_r>
    25ac:	1000041e 	bne	r2,zero,25c0 <_fseeko_r+0x3e0>
    25b0:	d8800117 	ldw	r2,4(sp)
    25b4:	00e00014 	movui	r3,32768
    25b8:	10bc000c 	andi	r2,r2,61440
    25bc:	10ff7c26 	beq	r2,r3,23b0 <__alt_mem_onchip_memory+0xf78023b0>
    25c0:	8080030b 	ldhu	r2,12(r16)
    25c4:	003f3d06 	br	22bc <__alt_mem_onchip_memory+0xf78022bc>
    25c8:	800b883a 	mov	r5,r16
    25cc:	8809883a 	mov	r4,r17
    25d0:	0002a1c0 	call	2a1c <__smakebuf_r>
    25d4:	003f3106 	br	229c <__alt_mem_onchip_memory+0xf780229c>
    25d8:	81400717 	ldw	r5,28(r16)
    25dc:	01c00044 	movi	r7,1
    25e0:	000d883a 	mov	r6,zero
    25e4:	8809883a 	mov	r4,r17
    25e8:	a03ee83a 	callr	r20
    25ec:	00ffffc4 	movi	r3,-1
    25f0:	10ff7b1e 	bne	r2,r3,23e0 <__alt_mem_onchip_memory+0xf78023e0>
    25f4:	003f3306 	br	22c4 <__alt_mem_onchip_memory+0xf78022c4>
    25f8:	80c00017 	ldw	r3,0(r16)
    25fc:	80800417 	ldw	r2,16(r16)
    2600:	000b883a 	mov	r5,zero
    2604:	1887c83a 	sub	r3,r3,r2
    2608:	98e7c83a 	sub	r19,r19,r3
    260c:	30c7883a 	add	r3,r6,r3
    2610:	003f7f06 	br	2410 <__alt_mem_onchip_memory+0xf7802410>
    2614:	00800744 	movi	r2,29
    2618:	88800015 	stw	r2,0(r17)
    261c:	04ffffc4 	movi	r19,-1
    2620:	003f0e06 	br	225c <__alt_mem_onchip_memory+0xf780225c>

00002624 <fseeko>:
    2624:	008000b4 	movhi	r2,2
    2628:	10931a04 	addi	r2,r2,19560
    262c:	300f883a 	mov	r7,r6
    2630:	280d883a 	mov	r6,r5
    2634:	200b883a 	mov	r5,r4
    2638:	11000017 	ldw	r4,0(r2)
    263c:	00021e01 	jmpi	21e0 <_fseeko_r>

00002640 <_fstat_r>:
    2640:	defffd04 	addi	sp,sp,-12
    2644:	2805883a 	mov	r2,r5
    2648:	dc000015 	stw	r16,0(sp)
    264c:	040000b4 	movhi	r16,2
    2650:	dc400115 	stw	r17,4(sp)
    2654:	841b4504 	addi	r16,r16,27924
    2658:	2023883a 	mov	r17,r4
    265c:	300b883a 	mov	r5,r6
    2660:	1009883a 	mov	r4,r2
    2664:	dfc00215 	stw	ra,8(sp)
    2668:	80000015 	stw	zero,0(r16)
    266c:	00122c00 	call	122c0 <fstat>
    2670:	00ffffc4 	movi	r3,-1
    2674:	10c00526 	beq	r2,r3,268c <_fstat_r+0x4c>
    2678:	dfc00217 	ldw	ra,8(sp)
    267c:	dc400117 	ldw	r17,4(sp)
    2680:	dc000017 	ldw	r16,0(sp)
    2684:	dec00304 	addi	sp,sp,12
    2688:	f800283a 	ret
    268c:	80c00017 	ldw	r3,0(r16)
    2690:	183ff926 	beq	r3,zero,2678 <__alt_mem_onchip_memory+0xf7802678>
    2694:	88c00015 	stw	r3,0(r17)
    2698:	003ff706 	br	2678 <__alt_mem_onchip_memory+0xf7802678>

0000269c <_fwalk>:
    269c:	defff704 	addi	sp,sp,-36
    26a0:	dd000415 	stw	r20,16(sp)
    26a4:	dfc00815 	stw	ra,32(sp)
    26a8:	ddc00715 	stw	r23,28(sp)
    26ac:	dd800615 	stw	r22,24(sp)
    26b0:	dd400515 	stw	r21,20(sp)
    26b4:	dcc00315 	stw	r19,12(sp)
    26b8:	dc800215 	stw	r18,8(sp)
    26bc:	dc400115 	stw	r17,4(sp)
    26c0:	dc000015 	stw	r16,0(sp)
    26c4:	2500b804 	addi	r20,r4,736
    26c8:	a0002326 	beq	r20,zero,2758 <_fwalk+0xbc>
    26cc:	282b883a 	mov	r21,r5
    26d0:	002f883a 	mov	r23,zero
    26d4:	05800044 	movi	r22,1
    26d8:	04ffffc4 	movi	r19,-1
    26dc:	a4400117 	ldw	r17,4(r20)
    26e0:	a4800217 	ldw	r18,8(r20)
    26e4:	8c7fffc4 	addi	r17,r17,-1
    26e8:	88000d16 	blt	r17,zero,2720 <_fwalk+0x84>
    26ec:	94000304 	addi	r16,r18,12
    26f0:	94800384 	addi	r18,r18,14
    26f4:	8080000b 	ldhu	r2,0(r16)
    26f8:	8c7fffc4 	addi	r17,r17,-1
    26fc:	813ffd04 	addi	r4,r16,-12
    2700:	b080042e 	bgeu	r22,r2,2714 <_fwalk+0x78>
    2704:	9080000f 	ldh	r2,0(r18)
    2708:	14c00226 	beq	r2,r19,2714 <_fwalk+0x78>
    270c:	a83ee83a 	callr	r21
    2710:	b8aeb03a 	or	r23,r23,r2
    2714:	84001a04 	addi	r16,r16,104
    2718:	94801a04 	addi	r18,r18,104
    271c:	8cfff51e 	bne	r17,r19,26f4 <__alt_mem_onchip_memory+0xf78026f4>
    2720:	a5000017 	ldw	r20,0(r20)
    2724:	a03fed1e 	bne	r20,zero,26dc <__alt_mem_onchip_memory+0xf78026dc>
    2728:	b805883a 	mov	r2,r23
    272c:	dfc00817 	ldw	ra,32(sp)
    2730:	ddc00717 	ldw	r23,28(sp)
    2734:	dd800617 	ldw	r22,24(sp)
    2738:	dd400517 	ldw	r21,20(sp)
    273c:	dd000417 	ldw	r20,16(sp)
    2740:	dcc00317 	ldw	r19,12(sp)
    2744:	dc800217 	ldw	r18,8(sp)
    2748:	dc400117 	ldw	r17,4(sp)
    274c:	dc000017 	ldw	r16,0(sp)
    2750:	dec00904 	addi	sp,sp,36
    2754:	f800283a 	ret
    2758:	002f883a 	mov	r23,zero
    275c:	003ff206 	br	2728 <__alt_mem_onchip_memory+0xf7802728>

00002760 <_fwalk_reent>:
    2760:	defff704 	addi	sp,sp,-36
    2764:	dd000415 	stw	r20,16(sp)
    2768:	dfc00815 	stw	ra,32(sp)
    276c:	ddc00715 	stw	r23,28(sp)
    2770:	dd800615 	stw	r22,24(sp)
    2774:	dd400515 	stw	r21,20(sp)
    2778:	dcc00315 	stw	r19,12(sp)
    277c:	dc800215 	stw	r18,8(sp)
    2780:	dc400115 	stw	r17,4(sp)
    2784:	dc000015 	stw	r16,0(sp)
    2788:	2500b804 	addi	r20,r4,736
    278c:	a0002326 	beq	r20,zero,281c <_fwalk_reent+0xbc>
    2790:	282b883a 	mov	r21,r5
    2794:	2027883a 	mov	r19,r4
    2798:	002f883a 	mov	r23,zero
    279c:	05800044 	movi	r22,1
    27a0:	04bfffc4 	movi	r18,-1
    27a4:	a4400117 	ldw	r17,4(r20)
    27a8:	a4000217 	ldw	r16,8(r20)
    27ac:	8c7fffc4 	addi	r17,r17,-1
    27b0:	88000c16 	blt	r17,zero,27e4 <_fwalk_reent+0x84>
    27b4:	84000304 	addi	r16,r16,12
    27b8:	8080000b 	ldhu	r2,0(r16)
    27bc:	8c7fffc4 	addi	r17,r17,-1
    27c0:	817ffd04 	addi	r5,r16,-12
    27c4:	b080052e 	bgeu	r22,r2,27dc <_fwalk_reent+0x7c>
    27c8:	8080008f 	ldh	r2,2(r16)
    27cc:	9809883a 	mov	r4,r19
    27d0:	14800226 	beq	r2,r18,27dc <_fwalk_reent+0x7c>
    27d4:	a83ee83a 	callr	r21
    27d8:	b8aeb03a 	or	r23,r23,r2
    27dc:	84001a04 	addi	r16,r16,104
    27e0:	8cbff51e 	bne	r17,r18,27b8 <__alt_mem_onchip_memory+0xf78027b8>
    27e4:	a5000017 	ldw	r20,0(r20)
    27e8:	a03fee1e 	bne	r20,zero,27a4 <__alt_mem_onchip_memory+0xf78027a4>
    27ec:	b805883a 	mov	r2,r23
    27f0:	dfc00817 	ldw	ra,32(sp)
    27f4:	ddc00717 	ldw	r23,28(sp)
    27f8:	dd800617 	ldw	r22,24(sp)
    27fc:	dd400517 	ldw	r21,20(sp)
    2800:	dd000417 	ldw	r20,16(sp)
    2804:	dcc00317 	ldw	r19,12(sp)
    2808:	dc800217 	ldw	r18,8(sp)
    280c:	dc400117 	ldw	r17,4(sp)
    2810:	dc000017 	ldw	r16,0(sp)
    2814:	dec00904 	addi	sp,sp,36
    2818:	f800283a 	ret
    281c:	002f883a 	mov	r23,zero
    2820:	003ff206 	br	27ec <__alt_mem_onchip_memory+0xf78027ec>

00002824 <_fwrite_r>:
    2824:	defff504 	addi	sp,sp,-44
    2828:	dc800815 	stw	r18,32(sp)
    282c:	39a5383a 	mul	r18,r7,r6
    2830:	d8800304 	addi	r2,sp,12
    2834:	d8800015 	stw	r2,0(sp)
    2838:	00800044 	movi	r2,1
    283c:	dcc00915 	stw	r19,36(sp)
    2840:	dc400715 	stw	r17,28(sp)
    2844:	dc000615 	stw	r16,24(sp)
    2848:	d9400315 	stw	r5,12(sp)
    284c:	dfc00a15 	stw	ra,40(sp)
    2850:	dc800415 	stw	r18,16(sp)
    2854:	dc800215 	stw	r18,8(sp)
    2858:	d8800115 	stw	r2,4(sp)
    285c:	3027883a 	mov	r19,r6
    2860:	3821883a 	mov	r16,r7
    2864:	2023883a 	mov	r17,r4
    2868:	d9400b17 	ldw	r5,44(sp)
    286c:	20000226 	beq	r4,zero,2878 <_fwrite_r+0x54>
    2870:	20800e17 	ldw	r2,56(r4)
    2874:	10001a26 	beq	r2,zero,28e0 <_fwrite_r+0xbc>
    2878:	2880030b 	ldhu	r2,12(r5)
    287c:	10c8000c 	andi	r3,r2,8192
    2880:	1800061e 	bne	r3,zero,289c <_fwrite_r+0x78>
    2884:	29001917 	ldw	r4,100(r5)
    2888:	00f7ffc4 	movi	r3,-8193
    288c:	10880014 	ori	r2,r2,8192
    2890:	20c6703a 	and	r3,r4,r3
    2894:	2880030d 	sth	r2,12(r5)
    2898:	28c01915 	stw	r3,100(r5)
    289c:	d80d883a 	mov	r6,sp
    28a0:	8809883a 	mov	r4,r17
    28a4:	0009d080 	call	9d08 <__sfvwrite_r>
    28a8:	10000b26 	beq	r2,zero,28d8 <_fwrite_r+0xb4>
    28ac:	d9000217 	ldw	r4,8(sp)
    28b0:	980b883a 	mov	r5,r19
    28b4:	9109c83a 	sub	r4,r18,r4
    28b8:	000f9f40 	call	f9f4 <__udivsi3>
    28bc:	dfc00a17 	ldw	ra,40(sp)
    28c0:	dcc00917 	ldw	r19,36(sp)
    28c4:	dc800817 	ldw	r18,32(sp)
    28c8:	dc400717 	ldw	r17,28(sp)
    28cc:	dc000617 	ldw	r16,24(sp)
    28d0:	dec00b04 	addi	sp,sp,44
    28d4:	f800283a 	ret
    28d8:	8005883a 	mov	r2,r16
    28dc:	003ff706 	br	28bc <__alt_mem_onchip_memory+0xf78028bc>
    28e0:	d9400515 	stw	r5,20(sp)
    28e4:	0001be40 	call	1be4 <__sinit>
    28e8:	d9400517 	ldw	r5,20(sp)
    28ec:	003fe206 	br	2878 <__alt_mem_onchip_memory+0xf7802878>

000028f0 <fwrite>:
    28f0:	defffe04 	addi	sp,sp,-8
    28f4:	008000b4 	movhi	r2,2
    28f8:	d9c00015 	stw	r7,0(sp)
    28fc:	10931a04 	addi	r2,r2,19560
    2900:	300f883a 	mov	r7,r6
    2904:	280d883a 	mov	r6,r5
    2908:	200b883a 	mov	r5,r4
    290c:	11000017 	ldw	r4,0(r2)
    2910:	dfc00115 	stw	ra,4(sp)
    2914:	00028240 	call	2824 <_fwrite_r>
    2918:	dfc00117 	ldw	ra,4(sp)
    291c:	dec00204 	addi	sp,sp,8
    2920:	f800283a 	ret

00002924 <_getc_r>:
    2924:	defffd04 	addi	sp,sp,-12
    2928:	dc000115 	stw	r16,4(sp)
    292c:	dfc00215 	stw	ra,8(sp)
    2930:	2021883a 	mov	r16,r4
    2934:	20000226 	beq	r4,zero,2940 <_getc_r+0x1c>
    2938:	20800e17 	ldw	r2,56(r4)
    293c:	10000c26 	beq	r2,zero,2970 <_getc_r+0x4c>
    2940:	28800117 	ldw	r2,4(r5)
    2944:	10bfffc4 	addi	r2,r2,-1
    2948:	28800115 	stw	r2,4(r5)
    294c:	10000c16 	blt	r2,zero,2980 <_getc_r+0x5c>
    2950:	28800017 	ldw	r2,0(r5)
    2954:	10c00044 	addi	r3,r2,1
    2958:	28c00015 	stw	r3,0(r5)
    295c:	10800003 	ldbu	r2,0(r2)
    2960:	dfc00217 	ldw	ra,8(sp)
    2964:	dc000117 	ldw	r16,4(sp)
    2968:	dec00304 	addi	sp,sp,12
    296c:	f800283a 	ret
    2970:	d9400015 	stw	r5,0(sp)
    2974:	0001be40 	call	1be4 <__sinit>
    2978:	d9400017 	ldw	r5,0(sp)
    297c:	003ff006 	br	2940 <__alt_mem_onchip_memory+0xf7802940>
    2980:	8009883a 	mov	r4,r16
    2984:	dfc00217 	ldw	ra,8(sp)
    2988:	dc000117 	ldw	r16,4(sp)
    298c:	dec00304 	addi	sp,sp,12
    2990:	00038301 	jmpi	3830 <__srget_r>

00002994 <getc>:
    2994:	008000b4 	movhi	r2,2
    2998:	defffd04 	addi	sp,sp,-12
    299c:	10931a04 	addi	r2,r2,19560
    29a0:	dc400115 	stw	r17,4(sp)
    29a4:	14400017 	ldw	r17,0(r2)
    29a8:	dc000015 	stw	r16,0(sp)
    29ac:	dfc00215 	stw	ra,8(sp)
    29b0:	2021883a 	mov	r16,r4
    29b4:	88000226 	beq	r17,zero,29c0 <getc+0x2c>
    29b8:	88800e17 	ldw	r2,56(r17)
    29bc:	10000d26 	beq	r2,zero,29f4 <getc+0x60>
    29c0:	80800117 	ldw	r2,4(r16)
    29c4:	10bfffc4 	addi	r2,r2,-1
    29c8:	80800115 	stw	r2,4(r16)
    29cc:	10000c16 	blt	r2,zero,2a00 <getc+0x6c>
    29d0:	80800017 	ldw	r2,0(r16)
    29d4:	10c00044 	addi	r3,r2,1
    29d8:	80c00015 	stw	r3,0(r16)
    29dc:	10800003 	ldbu	r2,0(r2)
    29e0:	dfc00217 	ldw	ra,8(sp)
    29e4:	dc400117 	ldw	r17,4(sp)
    29e8:	dc000017 	ldw	r16,0(sp)
    29ec:	dec00304 	addi	sp,sp,12
    29f0:	f800283a 	ret
    29f4:	8809883a 	mov	r4,r17
    29f8:	0001be40 	call	1be4 <__sinit>
    29fc:	003ff006 	br	29c0 <__alt_mem_onchip_memory+0xf78029c0>
    2a00:	800b883a 	mov	r5,r16
    2a04:	8809883a 	mov	r4,r17
    2a08:	dfc00217 	ldw	ra,8(sp)
    2a0c:	dc400117 	ldw	r17,4(sp)
    2a10:	dc000017 	ldw	r16,0(sp)
    2a14:	dec00304 	addi	sp,sp,12
    2a18:	00038301 	jmpi	3830 <__srget_r>

00002a1c <__smakebuf_r>:
    2a1c:	2880030b 	ldhu	r2,12(r5)
    2a20:	10c0008c 	andi	r3,r2,2
    2a24:	1800411e 	bne	r3,zero,2b2c <__smakebuf_r+0x110>
    2a28:	deffec04 	addi	sp,sp,-80
    2a2c:	dc000f15 	stw	r16,60(sp)
    2a30:	2821883a 	mov	r16,r5
    2a34:	2940038f 	ldh	r5,14(r5)
    2a38:	dc401015 	stw	r17,64(sp)
    2a3c:	dfc01315 	stw	ra,76(sp)
    2a40:	dcc01215 	stw	r19,72(sp)
    2a44:	dc801115 	stw	r18,68(sp)
    2a48:	2023883a 	mov	r17,r4
    2a4c:	28001c16 	blt	r5,zero,2ac0 <__smakebuf_r+0xa4>
    2a50:	d80d883a 	mov	r6,sp
    2a54:	00026400 	call	2640 <_fstat_r>
    2a58:	10001816 	blt	r2,zero,2abc <__smakebuf_r+0xa0>
    2a5c:	d8800117 	ldw	r2,4(sp)
    2a60:	00e00014 	movui	r3,32768
    2a64:	10bc000c 	andi	r2,r2,61440
    2a68:	14c80020 	cmpeqi	r19,r2,8192
    2a6c:	10c03726 	beq	r2,r3,2b4c <__smakebuf_r+0x130>
    2a70:	80c0030b 	ldhu	r3,12(r16)
    2a74:	18c20014 	ori	r3,r3,2048
    2a78:	80c0030d 	sth	r3,12(r16)
    2a7c:	00c80004 	movi	r3,8192
    2a80:	10c0521e 	bne	r2,r3,2bcc <__smakebuf_r+0x1b0>
    2a84:	8140038f 	ldh	r5,14(r16)
    2a88:	8809883a 	mov	r4,r17
    2a8c:	000a1c40 	call	a1c4 <_isatty_r>
    2a90:	10004c26 	beq	r2,zero,2bc4 <__smakebuf_r+0x1a8>
    2a94:	8080030b 	ldhu	r2,12(r16)
    2a98:	80c010c4 	addi	r3,r16,67
    2a9c:	80c00015 	stw	r3,0(r16)
    2aa0:	10800054 	ori	r2,r2,1
    2aa4:	8080030d 	sth	r2,12(r16)
    2aa8:	00800044 	movi	r2,1
    2aac:	80c00415 	stw	r3,16(r16)
    2ab0:	80800515 	stw	r2,20(r16)
    2ab4:	04810004 	movi	r18,1024
    2ab8:	00000706 	br	2ad8 <__smakebuf_r+0xbc>
    2abc:	8080030b 	ldhu	r2,12(r16)
    2ac0:	10c0200c 	andi	r3,r2,128
    2ac4:	18001f1e 	bne	r3,zero,2b44 <__smakebuf_r+0x128>
    2ac8:	04810004 	movi	r18,1024
    2acc:	10820014 	ori	r2,r2,2048
    2ad0:	8080030d 	sth	r2,12(r16)
    2ad4:	0027883a 	mov	r19,zero
    2ad8:	900b883a 	mov	r5,r18
    2adc:	8809883a 	mov	r4,r17
    2ae0:	0002bd80 	call	2bd8 <_malloc_r>
    2ae4:	10002c26 	beq	r2,zero,2b98 <__smakebuf_r+0x17c>
    2ae8:	80c0030b 	ldhu	r3,12(r16)
    2aec:	01000034 	movhi	r4,0
    2af0:	21062704 	addi	r4,r4,6300
    2af4:	89000f15 	stw	r4,60(r17)
    2af8:	18c02014 	ori	r3,r3,128
    2afc:	80c0030d 	sth	r3,12(r16)
    2b00:	80800015 	stw	r2,0(r16)
    2b04:	80800415 	stw	r2,16(r16)
    2b08:	84800515 	stw	r18,20(r16)
    2b0c:	98001a1e 	bne	r19,zero,2b78 <__smakebuf_r+0x15c>
    2b10:	dfc01317 	ldw	ra,76(sp)
    2b14:	dcc01217 	ldw	r19,72(sp)
    2b18:	dc801117 	ldw	r18,68(sp)
    2b1c:	dc401017 	ldw	r17,64(sp)
    2b20:	dc000f17 	ldw	r16,60(sp)
    2b24:	dec01404 	addi	sp,sp,80
    2b28:	f800283a 	ret
    2b2c:	288010c4 	addi	r2,r5,67
    2b30:	28800015 	stw	r2,0(r5)
    2b34:	28800415 	stw	r2,16(r5)
    2b38:	00800044 	movi	r2,1
    2b3c:	28800515 	stw	r2,20(r5)
    2b40:	f800283a 	ret
    2b44:	04801004 	movi	r18,64
    2b48:	003fe006 	br	2acc <__alt_mem_onchip_memory+0xf7802acc>
    2b4c:	81000a17 	ldw	r4,40(r16)
    2b50:	00c00034 	movhi	r3,0
    2b54:	18ceaa04 	addi	r3,r3,15016
    2b58:	20ffc51e 	bne	r4,r3,2a70 <__alt_mem_onchip_memory+0xf7802a70>
    2b5c:	8080030b 	ldhu	r2,12(r16)
    2b60:	04810004 	movi	r18,1024
    2b64:	84801315 	stw	r18,76(r16)
    2b68:	1484b03a 	or	r2,r2,r18
    2b6c:	8080030d 	sth	r2,12(r16)
    2b70:	0027883a 	mov	r19,zero
    2b74:	003fd806 	br	2ad8 <__alt_mem_onchip_memory+0xf7802ad8>
    2b78:	8140038f 	ldh	r5,14(r16)
    2b7c:	8809883a 	mov	r4,r17
    2b80:	000a1c40 	call	a1c4 <_isatty_r>
    2b84:	103fe226 	beq	r2,zero,2b10 <__alt_mem_onchip_memory+0xf7802b10>
    2b88:	8080030b 	ldhu	r2,12(r16)
    2b8c:	10800054 	ori	r2,r2,1
    2b90:	8080030d 	sth	r2,12(r16)
    2b94:	003fde06 	br	2b10 <__alt_mem_onchip_memory+0xf7802b10>
    2b98:	8080030b 	ldhu	r2,12(r16)
    2b9c:	10c0800c 	andi	r3,r2,512
    2ba0:	183fdb1e 	bne	r3,zero,2b10 <__alt_mem_onchip_memory+0xf7802b10>
    2ba4:	10800094 	ori	r2,r2,2
    2ba8:	80c010c4 	addi	r3,r16,67
    2bac:	8080030d 	sth	r2,12(r16)
    2bb0:	00800044 	movi	r2,1
    2bb4:	80c00015 	stw	r3,0(r16)
    2bb8:	80c00415 	stw	r3,16(r16)
    2bbc:	80800515 	stw	r2,20(r16)
    2bc0:	003fd306 	br	2b10 <__alt_mem_onchip_memory+0xf7802b10>
    2bc4:	04810004 	movi	r18,1024
    2bc8:	003fc306 	br	2ad8 <__alt_mem_onchip_memory+0xf7802ad8>
    2bcc:	0027883a 	mov	r19,zero
    2bd0:	04810004 	movi	r18,1024
    2bd4:	003fc006 	br	2ad8 <__alt_mem_onchip_memory+0xf7802ad8>

00002bd8 <_malloc_r>:
    2bd8:	defff504 	addi	sp,sp,-44
    2bdc:	dc800315 	stw	r18,12(sp)
    2be0:	dfc00a15 	stw	ra,40(sp)
    2be4:	df000915 	stw	fp,36(sp)
    2be8:	ddc00815 	stw	r23,32(sp)
    2bec:	dd800715 	stw	r22,28(sp)
    2bf0:	dd400615 	stw	r21,24(sp)
    2bf4:	dd000515 	stw	r20,20(sp)
    2bf8:	dcc00415 	stw	r19,16(sp)
    2bfc:	dc400215 	stw	r17,8(sp)
    2c00:	dc000115 	stw	r16,4(sp)
    2c04:	288002c4 	addi	r2,r5,11
    2c08:	00c00584 	movi	r3,22
    2c0c:	2025883a 	mov	r18,r4
    2c10:	18807f2e 	bgeu	r3,r2,2e10 <_malloc_r+0x238>
    2c14:	047ffe04 	movi	r17,-8
    2c18:	1462703a 	and	r17,r2,r17
    2c1c:	8800a316 	blt	r17,zero,2eac <_malloc_r+0x2d4>
    2c20:	8940a236 	bltu	r17,r5,2eac <_malloc_r+0x2d4>
    2c24:	0012f800 	call	12f80 <__malloc_lock>
    2c28:	00807dc4 	movi	r2,503
    2c2c:	1441e92e 	bgeu	r2,r17,33d4 <_malloc_r+0x7fc>
    2c30:	8804d27a 	srli	r2,r17,9
    2c34:	1000a126 	beq	r2,zero,2ebc <_malloc_r+0x2e4>
    2c38:	00c00104 	movi	r3,4
    2c3c:	18811e36 	bltu	r3,r2,30b8 <_malloc_r+0x4e0>
    2c40:	8804d1ba 	srli	r2,r17,6
    2c44:	12000e44 	addi	r8,r2,57
    2c48:	11c00e04 	addi	r7,r2,56
    2c4c:	4209883a 	add	r4,r8,r8
    2c50:	04c000b4 	movhi	r19,2
    2c54:	2109883a 	add	r4,r4,r4
    2c58:	9ccc6904 	addi	r19,r19,12708
    2c5c:	2109883a 	add	r4,r4,r4
    2c60:	9909883a 	add	r4,r19,r4
    2c64:	24000117 	ldw	r16,4(r4)
    2c68:	213ffe04 	addi	r4,r4,-8
    2c6c:	24009726 	beq	r4,r16,2ecc <_malloc_r+0x2f4>
    2c70:	80800117 	ldw	r2,4(r16)
    2c74:	01bfff04 	movi	r6,-4
    2c78:	014003c4 	movi	r5,15
    2c7c:	1184703a 	and	r2,r2,r6
    2c80:	1447c83a 	sub	r3,r2,r17
    2c84:	28c00716 	blt	r5,r3,2ca4 <_malloc_r+0xcc>
    2c88:	1800920e 	bge	r3,zero,2ed4 <_malloc_r+0x2fc>
    2c8c:	84000317 	ldw	r16,12(r16)
    2c90:	24008e26 	beq	r4,r16,2ecc <_malloc_r+0x2f4>
    2c94:	80800117 	ldw	r2,4(r16)
    2c98:	1184703a 	and	r2,r2,r6
    2c9c:	1447c83a 	sub	r3,r2,r17
    2ca0:	28fff90e 	bge	r5,r3,2c88 <__alt_mem_onchip_memory+0xf7802c88>
    2ca4:	3809883a 	mov	r4,r7
    2ca8:	018000b4 	movhi	r6,2
    2cac:	9c000417 	ldw	r16,16(r19)
    2cb0:	318c6904 	addi	r6,r6,12708
    2cb4:	32000204 	addi	r8,r6,8
    2cb8:	82013426 	beq	r16,r8,318c <_malloc_r+0x5b4>
    2cbc:	80c00117 	ldw	r3,4(r16)
    2cc0:	00bfff04 	movi	r2,-4
    2cc4:	188e703a 	and	r7,r3,r2
    2cc8:	3c45c83a 	sub	r2,r7,r17
    2ccc:	00c003c4 	movi	r3,15
    2cd0:	18811f16 	blt	r3,r2,3150 <_malloc_r+0x578>
    2cd4:	32000515 	stw	r8,20(r6)
    2cd8:	32000415 	stw	r8,16(r6)
    2cdc:	10007f0e 	bge	r2,zero,2edc <_malloc_r+0x304>
    2ce0:	00807fc4 	movi	r2,511
    2ce4:	11c0fd36 	bltu	r2,r7,30dc <_malloc_r+0x504>
    2ce8:	3806d0fa 	srli	r3,r7,3
    2cec:	01c00044 	movi	r7,1
    2cf0:	30800117 	ldw	r2,4(r6)
    2cf4:	19400044 	addi	r5,r3,1
    2cf8:	294b883a 	add	r5,r5,r5
    2cfc:	1807d0ba 	srai	r3,r3,2
    2d00:	294b883a 	add	r5,r5,r5
    2d04:	294b883a 	add	r5,r5,r5
    2d08:	298b883a 	add	r5,r5,r6
    2d0c:	38c6983a 	sll	r3,r7,r3
    2d10:	29c00017 	ldw	r7,0(r5)
    2d14:	2a7ffe04 	addi	r9,r5,-8
    2d18:	1886b03a 	or	r3,r3,r2
    2d1c:	82400315 	stw	r9,12(r16)
    2d20:	81c00215 	stw	r7,8(r16)
    2d24:	30c00115 	stw	r3,4(r6)
    2d28:	2c000015 	stw	r16,0(r5)
    2d2c:	3c000315 	stw	r16,12(r7)
    2d30:	2005d0ba 	srai	r2,r4,2
    2d34:	01400044 	movi	r5,1
    2d38:	288a983a 	sll	r5,r5,r2
    2d3c:	19406f36 	bltu	r3,r5,2efc <_malloc_r+0x324>
    2d40:	28c4703a 	and	r2,r5,r3
    2d44:	10000a1e 	bne	r2,zero,2d70 <_malloc_r+0x198>
    2d48:	00bfff04 	movi	r2,-4
    2d4c:	294b883a 	add	r5,r5,r5
    2d50:	2088703a 	and	r4,r4,r2
    2d54:	28c4703a 	and	r2,r5,r3
    2d58:	21000104 	addi	r4,r4,4
    2d5c:	1000041e 	bne	r2,zero,2d70 <_malloc_r+0x198>
    2d60:	294b883a 	add	r5,r5,r5
    2d64:	28c4703a 	and	r2,r5,r3
    2d68:	21000104 	addi	r4,r4,4
    2d6c:	103ffc26 	beq	r2,zero,2d60 <__alt_mem_onchip_memory+0xf7802d60>
    2d70:	02bfff04 	movi	r10,-4
    2d74:	024003c4 	movi	r9,15
    2d78:	21800044 	addi	r6,r4,1
    2d7c:	318d883a 	add	r6,r6,r6
    2d80:	318d883a 	add	r6,r6,r6
    2d84:	318d883a 	add	r6,r6,r6
    2d88:	998d883a 	add	r6,r19,r6
    2d8c:	333ffe04 	addi	r12,r6,-8
    2d90:	2017883a 	mov	r11,r4
    2d94:	31800104 	addi	r6,r6,4
    2d98:	34000017 	ldw	r16,0(r6)
    2d9c:	31fffd04 	addi	r7,r6,-12
    2da0:	81c0041e 	bne	r16,r7,2db4 <_malloc_r+0x1dc>
    2da4:	0000fb06 	br	3194 <_malloc_r+0x5bc>
    2da8:	1801030e 	bge	r3,zero,31b8 <_malloc_r+0x5e0>
    2dac:	84000317 	ldw	r16,12(r16)
    2db0:	81c0f826 	beq	r16,r7,3194 <_malloc_r+0x5bc>
    2db4:	80800117 	ldw	r2,4(r16)
    2db8:	1284703a 	and	r2,r2,r10
    2dbc:	1447c83a 	sub	r3,r2,r17
    2dc0:	48fff90e 	bge	r9,r3,2da8 <__alt_mem_onchip_memory+0xf7802da8>
    2dc4:	80800317 	ldw	r2,12(r16)
    2dc8:	81000217 	ldw	r4,8(r16)
    2dcc:	89400054 	ori	r5,r17,1
    2dd0:	81400115 	stw	r5,4(r16)
    2dd4:	20800315 	stw	r2,12(r4)
    2dd8:	11000215 	stw	r4,8(r2)
    2ddc:	8463883a 	add	r17,r16,r17
    2de0:	9c400515 	stw	r17,20(r19)
    2de4:	9c400415 	stw	r17,16(r19)
    2de8:	18800054 	ori	r2,r3,1
    2dec:	88800115 	stw	r2,4(r17)
    2df0:	8a000315 	stw	r8,12(r17)
    2df4:	8a000215 	stw	r8,8(r17)
    2df8:	88e3883a 	add	r17,r17,r3
    2dfc:	88c00015 	stw	r3,0(r17)
    2e00:	9009883a 	mov	r4,r18
    2e04:	00130a00 	call	130a0 <__malloc_unlock>
    2e08:	80800204 	addi	r2,r16,8
    2e0c:	00001b06 	br	2e7c <_malloc_r+0x2a4>
    2e10:	04400404 	movi	r17,16
    2e14:	89402536 	bltu	r17,r5,2eac <_malloc_r+0x2d4>
    2e18:	0012f800 	call	12f80 <__malloc_lock>
    2e1c:	00800184 	movi	r2,6
    2e20:	01000084 	movi	r4,2
    2e24:	04c000b4 	movhi	r19,2
    2e28:	1085883a 	add	r2,r2,r2
    2e2c:	9ccc6904 	addi	r19,r19,12708
    2e30:	1085883a 	add	r2,r2,r2
    2e34:	9885883a 	add	r2,r19,r2
    2e38:	14000117 	ldw	r16,4(r2)
    2e3c:	10fffe04 	addi	r3,r2,-8
    2e40:	80c0d926 	beq	r16,r3,31a8 <_malloc_r+0x5d0>
    2e44:	80c00117 	ldw	r3,4(r16)
    2e48:	81000317 	ldw	r4,12(r16)
    2e4c:	00bfff04 	movi	r2,-4
    2e50:	1884703a 	and	r2,r3,r2
    2e54:	81400217 	ldw	r5,8(r16)
    2e58:	8085883a 	add	r2,r16,r2
    2e5c:	10c00117 	ldw	r3,4(r2)
    2e60:	29000315 	stw	r4,12(r5)
    2e64:	21400215 	stw	r5,8(r4)
    2e68:	18c00054 	ori	r3,r3,1
    2e6c:	10c00115 	stw	r3,4(r2)
    2e70:	9009883a 	mov	r4,r18
    2e74:	00130a00 	call	130a0 <__malloc_unlock>
    2e78:	80800204 	addi	r2,r16,8
    2e7c:	dfc00a17 	ldw	ra,40(sp)
    2e80:	df000917 	ldw	fp,36(sp)
    2e84:	ddc00817 	ldw	r23,32(sp)
    2e88:	dd800717 	ldw	r22,28(sp)
    2e8c:	dd400617 	ldw	r21,24(sp)
    2e90:	dd000517 	ldw	r20,20(sp)
    2e94:	dcc00417 	ldw	r19,16(sp)
    2e98:	dc800317 	ldw	r18,12(sp)
    2e9c:	dc400217 	ldw	r17,8(sp)
    2ea0:	dc000117 	ldw	r16,4(sp)
    2ea4:	dec00b04 	addi	sp,sp,44
    2ea8:	f800283a 	ret
    2eac:	00800304 	movi	r2,12
    2eb0:	90800015 	stw	r2,0(r18)
    2eb4:	0005883a 	mov	r2,zero
    2eb8:	003ff006 	br	2e7c <__alt_mem_onchip_memory+0xf7802e7c>
    2ebc:	01002004 	movi	r4,128
    2ec0:	02001004 	movi	r8,64
    2ec4:	01c00fc4 	movi	r7,63
    2ec8:	003f6106 	br	2c50 <__alt_mem_onchip_memory+0xf7802c50>
    2ecc:	4009883a 	mov	r4,r8
    2ed0:	003f7506 	br	2ca8 <__alt_mem_onchip_memory+0xf7802ca8>
    2ed4:	81000317 	ldw	r4,12(r16)
    2ed8:	003fde06 	br	2e54 <__alt_mem_onchip_memory+0xf7802e54>
    2edc:	81c5883a 	add	r2,r16,r7
    2ee0:	11400117 	ldw	r5,4(r2)
    2ee4:	9009883a 	mov	r4,r18
    2ee8:	29400054 	ori	r5,r5,1
    2eec:	11400115 	stw	r5,4(r2)
    2ef0:	00130a00 	call	130a0 <__malloc_unlock>
    2ef4:	80800204 	addi	r2,r16,8
    2ef8:	003fe006 	br	2e7c <__alt_mem_onchip_memory+0xf7802e7c>
    2efc:	9c000217 	ldw	r16,8(r19)
    2f00:	00bfff04 	movi	r2,-4
    2f04:	85800117 	ldw	r22,4(r16)
    2f08:	b0ac703a 	and	r22,r22,r2
    2f0c:	b4400336 	bltu	r22,r17,2f1c <_malloc_r+0x344>
    2f10:	b445c83a 	sub	r2,r22,r17
    2f14:	00c003c4 	movi	r3,15
    2f18:	18805d16 	blt	r3,r2,3090 <_malloc_r+0x4b8>
    2f1c:	05c000b4 	movhi	r23,2
    2f20:	008000b4 	movhi	r2,2
    2f24:	109b4804 	addi	r2,r2,27936
    2f28:	bdd31b04 	addi	r23,r23,19564
    2f2c:	15400017 	ldw	r21,0(r2)
    2f30:	b8c00017 	ldw	r3,0(r23)
    2f34:	00bfffc4 	movi	r2,-1
    2f38:	858d883a 	add	r6,r16,r22
    2f3c:	8d6b883a 	add	r21,r17,r21
    2f40:	1880ea26 	beq	r3,r2,32ec <_malloc_r+0x714>
    2f44:	ad4403c4 	addi	r21,r21,4111
    2f48:	00bc0004 	movi	r2,-4096
    2f4c:	a8aa703a 	and	r21,r21,r2
    2f50:	a80b883a 	mov	r5,r21
    2f54:	9009883a 	mov	r4,r18
    2f58:	d9800015 	stw	r6,0(sp)
    2f5c:	00038b80 	call	38b8 <_sbrk_r>
    2f60:	1029883a 	mov	r20,r2
    2f64:	00bfffc4 	movi	r2,-1
    2f68:	d9800017 	ldw	r6,0(sp)
    2f6c:	a080e826 	beq	r20,r2,3310 <_malloc_r+0x738>
    2f70:	a180a636 	bltu	r20,r6,320c <_malloc_r+0x634>
    2f74:	070000b4 	movhi	fp,2
    2f78:	e71b6c04 	addi	fp,fp,28080
    2f7c:	e0800017 	ldw	r2,0(fp)
    2f80:	a887883a 	add	r3,r21,r2
    2f84:	e0c00015 	stw	r3,0(fp)
    2f88:	3500e626 	beq	r6,r20,3324 <_malloc_r+0x74c>
    2f8c:	b9000017 	ldw	r4,0(r23)
    2f90:	00bfffc4 	movi	r2,-1
    2f94:	2080ee26 	beq	r4,r2,3350 <_malloc_r+0x778>
    2f98:	a185c83a 	sub	r2,r20,r6
    2f9c:	10c5883a 	add	r2,r2,r3
    2fa0:	e0800015 	stw	r2,0(fp)
    2fa4:	a0c001cc 	andi	r3,r20,7
    2fa8:	1800bc26 	beq	r3,zero,329c <_malloc_r+0x6c4>
    2fac:	a0e9c83a 	sub	r20,r20,r3
    2fb0:	00840204 	movi	r2,4104
    2fb4:	a5000204 	addi	r20,r20,8
    2fb8:	10c7c83a 	sub	r3,r2,r3
    2fbc:	a545883a 	add	r2,r20,r21
    2fc0:	1083ffcc 	andi	r2,r2,4095
    2fc4:	18abc83a 	sub	r21,r3,r2
    2fc8:	a80b883a 	mov	r5,r21
    2fcc:	9009883a 	mov	r4,r18
    2fd0:	00038b80 	call	38b8 <_sbrk_r>
    2fd4:	00ffffc4 	movi	r3,-1
    2fd8:	10c0e126 	beq	r2,r3,3360 <_malloc_r+0x788>
    2fdc:	1505c83a 	sub	r2,r2,r20
    2fe0:	1545883a 	add	r2,r2,r21
    2fe4:	10800054 	ori	r2,r2,1
    2fe8:	e0c00017 	ldw	r3,0(fp)
    2fec:	9d000215 	stw	r20,8(r19)
    2ff0:	a0800115 	stw	r2,4(r20)
    2ff4:	a8c7883a 	add	r3,r21,r3
    2ff8:	e0c00015 	stw	r3,0(fp)
    2ffc:	84c00e26 	beq	r16,r19,3038 <_malloc_r+0x460>
    3000:	018003c4 	movi	r6,15
    3004:	3580a72e 	bgeu	r6,r22,32a4 <_malloc_r+0x6cc>
    3008:	81400117 	ldw	r5,4(r16)
    300c:	013ffe04 	movi	r4,-8
    3010:	b0bffd04 	addi	r2,r22,-12
    3014:	1104703a 	and	r2,r2,r4
    3018:	2900004c 	andi	r4,r5,1
    301c:	2088b03a 	or	r4,r4,r2
    3020:	81000115 	stw	r4,4(r16)
    3024:	01400144 	movi	r5,5
    3028:	8089883a 	add	r4,r16,r2
    302c:	21400115 	stw	r5,4(r4)
    3030:	21400215 	stw	r5,8(r4)
    3034:	3080cd36 	bltu	r6,r2,336c <_malloc_r+0x794>
    3038:	008000b4 	movhi	r2,2
    303c:	109b4704 	addi	r2,r2,27932
    3040:	11000017 	ldw	r4,0(r2)
    3044:	20c0012e 	bgeu	r4,r3,304c <_malloc_r+0x474>
    3048:	10c00015 	stw	r3,0(r2)
    304c:	008000b4 	movhi	r2,2
    3050:	109b4604 	addi	r2,r2,27928
    3054:	11000017 	ldw	r4,0(r2)
    3058:	9c000217 	ldw	r16,8(r19)
    305c:	20c0012e 	bgeu	r4,r3,3064 <_malloc_r+0x48c>
    3060:	10c00015 	stw	r3,0(r2)
    3064:	80c00117 	ldw	r3,4(r16)
    3068:	00bfff04 	movi	r2,-4
    306c:	1886703a 	and	r3,r3,r2
    3070:	1c45c83a 	sub	r2,r3,r17
    3074:	1c400236 	bltu	r3,r17,3080 <_malloc_r+0x4a8>
    3078:	00c003c4 	movi	r3,15
    307c:	18800416 	blt	r3,r2,3090 <_malloc_r+0x4b8>
    3080:	9009883a 	mov	r4,r18
    3084:	00130a00 	call	130a0 <__malloc_unlock>
    3088:	0005883a 	mov	r2,zero
    308c:	003f7b06 	br	2e7c <__alt_mem_onchip_memory+0xf7802e7c>
    3090:	88c00054 	ori	r3,r17,1
    3094:	80c00115 	stw	r3,4(r16)
    3098:	8463883a 	add	r17,r16,r17
    309c:	10800054 	ori	r2,r2,1
    30a0:	9c400215 	stw	r17,8(r19)
    30a4:	88800115 	stw	r2,4(r17)
    30a8:	9009883a 	mov	r4,r18
    30ac:	00130a00 	call	130a0 <__malloc_unlock>
    30b0:	80800204 	addi	r2,r16,8
    30b4:	003f7106 	br	2e7c <__alt_mem_onchip_memory+0xf7802e7c>
    30b8:	00c00504 	movi	r3,20
    30bc:	18804a2e 	bgeu	r3,r2,31e8 <_malloc_r+0x610>
    30c0:	00c01504 	movi	r3,84
    30c4:	18806e36 	bltu	r3,r2,3280 <_malloc_r+0x6a8>
    30c8:	8804d33a 	srli	r2,r17,12
    30cc:	12001bc4 	addi	r8,r2,111
    30d0:	11c01b84 	addi	r7,r2,110
    30d4:	4209883a 	add	r4,r8,r8
    30d8:	003edd06 	br	2c50 <__alt_mem_onchip_memory+0xf7802c50>
    30dc:	3804d27a 	srli	r2,r7,9
    30e0:	00c00104 	movi	r3,4
    30e4:	1880442e 	bgeu	r3,r2,31f8 <_malloc_r+0x620>
    30e8:	00c00504 	movi	r3,20
    30ec:	18808136 	bltu	r3,r2,32f4 <_malloc_r+0x71c>
    30f0:	11401704 	addi	r5,r2,92
    30f4:	10c016c4 	addi	r3,r2,91
    30f8:	294b883a 	add	r5,r5,r5
    30fc:	294b883a 	add	r5,r5,r5
    3100:	294b883a 	add	r5,r5,r5
    3104:	994b883a 	add	r5,r19,r5
    3108:	28800017 	ldw	r2,0(r5)
    310c:	018000b4 	movhi	r6,2
    3110:	297ffe04 	addi	r5,r5,-8
    3114:	318c6904 	addi	r6,r6,12708
    3118:	28806526 	beq	r5,r2,32b0 <_malloc_r+0x6d8>
    311c:	01bfff04 	movi	r6,-4
    3120:	10c00117 	ldw	r3,4(r2)
    3124:	1986703a 	and	r3,r3,r6
    3128:	38c0022e 	bgeu	r7,r3,3134 <_malloc_r+0x55c>
    312c:	10800217 	ldw	r2,8(r2)
    3130:	28bffb1e 	bne	r5,r2,3120 <__alt_mem_onchip_memory+0xf7803120>
    3134:	11400317 	ldw	r5,12(r2)
    3138:	98c00117 	ldw	r3,4(r19)
    313c:	81400315 	stw	r5,12(r16)
    3140:	80800215 	stw	r2,8(r16)
    3144:	2c000215 	stw	r16,8(r5)
    3148:	14000315 	stw	r16,12(r2)
    314c:	003ef806 	br	2d30 <__alt_mem_onchip_memory+0xf7802d30>
    3150:	88c00054 	ori	r3,r17,1
    3154:	80c00115 	stw	r3,4(r16)
    3158:	8463883a 	add	r17,r16,r17
    315c:	34400515 	stw	r17,20(r6)
    3160:	34400415 	stw	r17,16(r6)
    3164:	10c00054 	ori	r3,r2,1
    3168:	8a000315 	stw	r8,12(r17)
    316c:	8a000215 	stw	r8,8(r17)
    3170:	88c00115 	stw	r3,4(r17)
    3174:	88a3883a 	add	r17,r17,r2
    3178:	88800015 	stw	r2,0(r17)
    317c:	9009883a 	mov	r4,r18
    3180:	00130a00 	call	130a0 <__malloc_unlock>
    3184:	80800204 	addi	r2,r16,8
    3188:	003f3c06 	br	2e7c <__alt_mem_onchip_memory+0xf7802e7c>
    318c:	30c00117 	ldw	r3,4(r6)
    3190:	003ee706 	br	2d30 <__alt_mem_onchip_memory+0xf7802d30>
    3194:	5ac00044 	addi	r11,r11,1
    3198:	588000cc 	andi	r2,r11,3
    319c:	31800204 	addi	r6,r6,8
    31a0:	103efd1e 	bne	r2,zero,2d98 <__alt_mem_onchip_memory+0xf7802d98>
    31a4:	00002406 	br	3238 <_malloc_r+0x660>
    31a8:	14000317 	ldw	r16,12(r2)
    31ac:	143f251e 	bne	r2,r16,2e44 <__alt_mem_onchip_memory+0xf7802e44>
    31b0:	21000084 	addi	r4,r4,2
    31b4:	003ebc06 	br	2ca8 <__alt_mem_onchip_memory+0xf7802ca8>
    31b8:	8085883a 	add	r2,r16,r2
    31bc:	10c00117 	ldw	r3,4(r2)
    31c0:	81000317 	ldw	r4,12(r16)
    31c4:	81400217 	ldw	r5,8(r16)
    31c8:	18c00054 	ori	r3,r3,1
    31cc:	10c00115 	stw	r3,4(r2)
    31d0:	29000315 	stw	r4,12(r5)
    31d4:	21400215 	stw	r5,8(r4)
    31d8:	9009883a 	mov	r4,r18
    31dc:	00130a00 	call	130a0 <__malloc_unlock>
    31e0:	80800204 	addi	r2,r16,8
    31e4:	003f2506 	br	2e7c <__alt_mem_onchip_memory+0xf7802e7c>
    31e8:	12001704 	addi	r8,r2,92
    31ec:	11c016c4 	addi	r7,r2,91
    31f0:	4209883a 	add	r4,r8,r8
    31f4:	003e9606 	br	2c50 <__alt_mem_onchip_memory+0xf7802c50>
    31f8:	3804d1ba 	srli	r2,r7,6
    31fc:	11400e44 	addi	r5,r2,57
    3200:	10c00e04 	addi	r3,r2,56
    3204:	294b883a 	add	r5,r5,r5
    3208:	003fbc06 	br	30fc <__alt_mem_onchip_memory+0xf78030fc>
    320c:	84ff5926 	beq	r16,r19,2f74 <__alt_mem_onchip_memory+0xf7802f74>
    3210:	008000b4 	movhi	r2,2
    3214:	108c6904 	addi	r2,r2,12708
    3218:	14000217 	ldw	r16,8(r2)
    321c:	00bfff04 	movi	r2,-4
    3220:	80c00117 	ldw	r3,4(r16)
    3224:	1886703a 	and	r3,r3,r2
    3228:	003f9106 	br	3070 <__alt_mem_onchip_memory+0xf7803070>
    322c:	60800217 	ldw	r2,8(r12)
    3230:	213fffc4 	addi	r4,r4,-1
    3234:	1300651e 	bne	r2,r12,33cc <_malloc_r+0x7f4>
    3238:	208000cc 	andi	r2,r4,3
    323c:	633ffe04 	addi	r12,r12,-8
    3240:	103ffa1e 	bne	r2,zero,322c <__alt_mem_onchip_memory+0xf780322c>
    3244:	98800117 	ldw	r2,4(r19)
    3248:	0146303a 	nor	r3,zero,r5
    324c:	1884703a 	and	r2,r3,r2
    3250:	98800115 	stw	r2,4(r19)
    3254:	294b883a 	add	r5,r5,r5
    3258:	117f2836 	bltu	r2,r5,2efc <__alt_mem_onchip_memory+0xf7802efc>
    325c:	283f2726 	beq	r5,zero,2efc <__alt_mem_onchip_memory+0xf7802efc>
    3260:	2886703a 	and	r3,r5,r2
    3264:	5809883a 	mov	r4,r11
    3268:	183ec31e 	bne	r3,zero,2d78 <__alt_mem_onchip_memory+0xf7802d78>
    326c:	294b883a 	add	r5,r5,r5
    3270:	2886703a 	and	r3,r5,r2
    3274:	21000104 	addi	r4,r4,4
    3278:	183ffc26 	beq	r3,zero,326c <__alt_mem_onchip_memory+0xf780326c>
    327c:	003ebe06 	br	2d78 <__alt_mem_onchip_memory+0xf7802d78>
    3280:	00c05504 	movi	r3,340
    3284:	18801236 	bltu	r3,r2,32d0 <_malloc_r+0x6f8>
    3288:	8804d3fa 	srli	r2,r17,15
    328c:	12001e04 	addi	r8,r2,120
    3290:	11c01dc4 	addi	r7,r2,119
    3294:	4209883a 	add	r4,r8,r8
    3298:	003e6d06 	br	2c50 <__alt_mem_onchip_memory+0xf7802c50>
    329c:	00c40004 	movi	r3,4096
    32a0:	003f4606 	br	2fbc <__alt_mem_onchip_memory+0xf7802fbc>
    32a4:	00800044 	movi	r2,1
    32a8:	a0800115 	stw	r2,4(r20)
    32ac:	003f7406 	br	3080 <__alt_mem_onchip_memory+0xf7803080>
    32b0:	1805d0ba 	srai	r2,r3,2
    32b4:	01c00044 	movi	r7,1
    32b8:	30c00117 	ldw	r3,4(r6)
    32bc:	388e983a 	sll	r7,r7,r2
    32c0:	2805883a 	mov	r2,r5
    32c4:	38c6b03a 	or	r3,r7,r3
    32c8:	30c00115 	stw	r3,4(r6)
    32cc:	003f9b06 	br	313c <__alt_mem_onchip_memory+0xf780313c>
    32d0:	00c15504 	movi	r3,1364
    32d4:	18801a36 	bltu	r3,r2,3340 <_malloc_r+0x768>
    32d8:	8804d4ba 	srli	r2,r17,18
    32dc:	12001f44 	addi	r8,r2,125
    32e0:	11c01f04 	addi	r7,r2,124
    32e4:	4209883a 	add	r4,r8,r8
    32e8:	003e5906 	br	2c50 <__alt_mem_onchip_memory+0xf7802c50>
    32ec:	ad400404 	addi	r21,r21,16
    32f0:	003f1706 	br	2f50 <__alt_mem_onchip_memory+0xf7802f50>
    32f4:	00c01504 	movi	r3,84
    32f8:	18802336 	bltu	r3,r2,3388 <_malloc_r+0x7b0>
    32fc:	3804d33a 	srli	r2,r7,12
    3300:	11401bc4 	addi	r5,r2,111
    3304:	10c01b84 	addi	r3,r2,110
    3308:	294b883a 	add	r5,r5,r5
    330c:	003f7b06 	br	30fc <__alt_mem_onchip_memory+0xf78030fc>
    3310:	9c000217 	ldw	r16,8(r19)
    3314:	00bfff04 	movi	r2,-4
    3318:	80c00117 	ldw	r3,4(r16)
    331c:	1886703a 	and	r3,r3,r2
    3320:	003f5306 	br	3070 <__alt_mem_onchip_memory+0xf7803070>
    3324:	3083ffcc 	andi	r2,r6,4095
    3328:	103f181e 	bne	r2,zero,2f8c <__alt_mem_onchip_memory+0xf7802f8c>
    332c:	99000217 	ldw	r4,8(r19)
    3330:	b545883a 	add	r2,r22,r21
    3334:	10800054 	ori	r2,r2,1
    3338:	20800115 	stw	r2,4(r4)
    333c:	003f3e06 	br	3038 <__alt_mem_onchip_memory+0xf7803038>
    3340:	01003f84 	movi	r4,254
    3344:	02001fc4 	movi	r8,127
    3348:	01c01f84 	movi	r7,126
    334c:	003e4006 	br	2c50 <__alt_mem_onchip_memory+0xf7802c50>
    3350:	008000b4 	movhi	r2,2
    3354:	10931b04 	addi	r2,r2,19564
    3358:	15000015 	stw	r20,0(r2)
    335c:	003f1106 	br	2fa4 <__alt_mem_onchip_memory+0xf7802fa4>
    3360:	00800044 	movi	r2,1
    3364:	002b883a 	mov	r21,zero
    3368:	003f1f06 	br	2fe8 <__alt_mem_onchip_memory+0xf7802fe8>
    336c:	81400204 	addi	r5,r16,8
    3370:	9009883a 	mov	r4,r18
    3374:	0001eb00 	call	1eb0 <_free_r>
    3378:	008000b4 	movhi	r2,2
    337c:	109b6c04 	addi	r2,r2,28080
    3380:	10c00017 	ldw	r3,0(r2)
    3384:	003f2c06 	br	3038 <__alt_mem_onchip_memory+0xf7803038>
    3388:	00c05504 	movi	r3,340
    338c:	18800536 	bltu	r3,r2,33a4 <_malloc_r+0x7cc>
    3390:	3804d3fa 	srli	r2,r7,15
    3394:	11401e04 	addi	r5,r2,120
    3398:	10c01dc4 	addi	r3,r2,119
    339c:	294b883a 	add	r5,r5,r5
    33a0:	003f5606 	br	30fc <__alt_mem_onchip_memory+0xf78030fc>
    33a4:	00c15504 	movi	r3,1364
    33a8:	18800536 	bltu	r3,r2,33c0 <_malloc_r+0x7e8>
    33ac:	3804d4ba 	srli	r2,r7,18
    33b0:	11401f44 	addi	r5,r2,125
    33b4:	10c01f04 	addi	r3,r2,124
    33b8:	294b883a 	add	r5,r5,r5
    33bc:	003f4f06 	br	30fc <__alt_mem_onchip_memory+0xf78030fc>
    33c0:	01403f84 	movi	r5,254
    33c4:	00c01f84 	movi	r3,126
    33c8:	003f4c06 	br	30fc <__alt_mem_onchip_memory+0xf78030fc>
    33cc:	98800117 	ldw	r2,4(r19)
    33d0:	003fa006 	br	3254 <__alt_mem_onchip_memory+0xf7803254>
    33d4:	8808d0fa 	srli	r4,r17,3
    33d8:	20800044 	addi	r2,r4,1
    33dc:	1085883a 	add	r2,r2,r2
    33e0:	003e9006 	br	2e24 <__alt_mem_onchip_memory+0xf7802e24>

000033e4 <memset>:
    33e4:	20c000cc 	andi	r3,r4,3
    33e8:	2005883a 	mov	r2,r4
    33ec:	18004426 	beq	r3,zero,3500 <memset+0x11c>
    33f0:	31ffffc4 	addi	r7,r6,-1
    33f4:	30004026 	beq	r6,zero,34f8 <memset+0x114>
    33f8:	2813883a 	mov	r9,r5
    33fc:	200d883a 	mov	r6,r4
    3400:	2007883a 	mov	r3,r4
    3404:	00000406 	br	3418 <memset+0x34>
    3408:	3a3fffc4 	addi	r8,r7,-1
    340c:	31800044 	addi	r6,r6,1
    3410:	38003926 	beq	r7,zero,34f8 <memset+0x114>
    3414:	400f883a 	mov	r7,r8
    3418:	18c00044 	addi	r3,r3,1
    341c:	32400005 	stb	r9,0(r6)
    3420:	1a0000cc 	andi	r8,r3,3
    3424:	403ff81e 	bne	r8,zero,3408 <__alt_mem_onchip_memory+0xf7803408>
    3428:	010000c4 	movi	r4,3
    342c:	21c02d2e 	bgeu	r4,r7,34e4 <memset+0x100>
    3430:	29003fcc 	andi	r4,r5,255
    3434:	200c923a 	slli	r6,r4,8
    3438:	3108b03a 	or	r4,r6,r4
    343c:	200c943a 	slli	r6,r4,16
    3440:	218cb03a 	or	r6,r4,r6
    3444:	010003c4 	movi	r4,15
    3448:	21c0182e 	bgeu	r4,r7,34ac <memset+0xc8>
    344c:	3b3ffc04 	addi	r12,r7,-16
    3450:	6018d13a 	srli	r12,r12,4
    3454:	1a000104 	addi	r8,r3,4
    3458:	1ac00204 	addi	r11,r3,8
    345c:	6008913a 	slli	r4,r12,4
    3460:	1a800304 	addi	r10,r3,12
    3464:	1813883a 	mov	r9,r3
    3468:	21000504 	addi	r4,r4,20
    346c:	1909883a 	add	r4,r3,r4
    3470:	49800015 	stw	r6,0(r9)
    3474:	41800015 	stw	r6,0(r8)
    3478:	59800015 	stw	r6,0(r11)
    347c:	51800015 	stw	r6,0(r10)
    3480:	42000404 	addi	r8,r8,16
    3484:	4a400404 	addi	r9,r9,16
    3488:	5ac00404 	addi	r11,r11,16
    348c:	52800404 	addi	r10,r10,16
    3490:	413ff71e 	bne	r8,r4,3470 <__alt_mem_onchip_memory+0xf7803470>
    3494:	63000044 	addi	r12,r12,1
    3498:	6018913a 	slli	r12,r12,4
    349c:	39c003cc 	andi	r7,r7,15
    34a0:	010000c4 	movi	r4,3
    34a4:	1b07883a 	add	r3,r3,r12
    34a8:	21c00e2e 	bgeu	r4,r7,34e4 <memset+0x100>
    34ac:	1813883a 	mov	r9,r3
    34b0:	3811883a 	mov	r8,r7
    34b4:	010000c4 	movi	r4,3
    34b8:	49800015 	stw	r6,0(r9)
    34bc:	423fff04 	addi	r8,r8,-4
    34c0:	4a400104 	addi	r9,r9,4
    34c4:	223ffc36 	bltu	r4,r8,34b8 <__alt_mem_onchip_memory+0xf78034b8>
    34c8:	393fff04 	addi	r4,r7,-4
    34cc:	2008d0ba 	srli	r4,r4,2
    34d0:	39c000cc 	andi	r7,r7,3
    34d4:	21000044 	addi	r4,r4,1
    34d8:	2109883a 	add	r4,r4,r4
    34dc:	2109883a 	add	r4,r4,r4
    34e0:	1907883a 	add	r3,r3,r4
    34e4:	38000526 	beq	r7,zero,34fc <memset+0x118>
    34e8:	19cf883a 	add	r7,r3,r7
    34ec:	19400005 	stb	r5,0(r3)
    34f0:	18c00044 	addi	r3,r3,1
    34f4:	38fffd1e 	bne	r7,r3,34ec <__alt_mem_onchip_memory+0xf78034ec>
    34f8:	f800283a 	ret
    34fc:	f800283a 	ret
    3500:	2007883a 	mov	r3,r4
    3504:	300f883a 	mov	r7,r6
    3508:	003fc706 	br	3428 <__alt_mem_onchip_memory+0xf7803428>

0000350c <_open_r>:
    350c:	defffd04 	addi	sp,sp,-12
    3510:	2805883a 	mov	r2,r5
    3514:	dc000015 	stw	r16,0(sp)
    3518:	040000b4 	movhi	r16,2
    351c:	dc400115 	stw	r17,4(sp)
    3520:	300b883a 	mov	r5,r6
    3524:	841b4504 	addi	r16,r16,27924
    3528:	2023883a 	mov	r17,r4
    352c:	380d883a 	mov	r6,r7
    3530:	1009883a 	mov	r4,r2
    3534:	dfc00215 	stw	ra,8(sp)
    3538:	80000015 	stw	zero,0(r16)
    353c:	00129880 	call	12988 <open>
    3540:	00ffffc4 	movi	r3,-1
    3544:	10c00526 	beq	r2,r3,355c <_open_r+0x50>
    3548:	dfc00217 	ldw	ra,8(sp)
    354c:	dc400117 	ldw	r17,4(sp)
    3550:	dc000017 	ldw	r16,0(sp)
    3554:	dec00304 	addi	sp,sp,12
    3558:	f800283a 	ret
    355c:	80c00017 	ldw	r3,0(r16)
    3560:	183ff926 	beq	r3,zero,3548 <__alt_mem_onchip_memory+0xf7803548>
    3564:	88c00015 	stw	r3,0(r17)
    3568:	003ff706 	br	3548 <__alt_mem_onchip_memory+0xf7803548>

0000356c <_puts_r>:
    356c:	defff604 	addi	sp,sp,-40
    3570:	dc000715 	stw	r16,28(sp)
    3574:	2021883a 	mov	r16,r4
    3578:	2809883a 	mov	r4,r5
    357c:	dc400815 	stw	r17,32(sp)
    3580:	dfc00915 	stw	ra,36(sp)
    3584:	2823883a 	mov	r17,r5
    3588:	0003b0c0 	call	3b0c <strlen>
    358c:	10c00044 	addi	r3,r2,1
    3590:	d8800115 	stw	r2,4(sp)
    3594:	008000b4 	movhi	r2,2
    3598:	1089f004 	addi	r2,r2,10176
    359c:	d8800215 	stw	r2,8(sp)
    35a0:	00800044 	movi	r2,1
    35a4:	d8800315 	stw	r2,12(sp)
    35a8:	00800084 	movi	r2,2
    35ac:	dc400015 	stw	r17,0(sp)
    35b0:	d8c00615 	stw	r3,24(sp)
    35b4:	dec00415 	stw	sp,16(sp)
    35b8:	d8800515 	stw	r2,20(sp)
    35bc:	80000226 	beq	r16,zero,35c8 <_puts_r+0x5c>
    35c0:	80800e17 	ldw	r2,56(r16)
    35c4:	10001426 	beq	r2,zero,3618 <_puts_r+0xac>
    35c8:	81400217 	ldw	r5,8(r16)
    35cc:	2880030b 	ldhu	r2,12(r5)
    35d0:	10c8000c 	andi	r3,r2,8192
    35d4:	1800061e 	bne	r3,zero,35f0 <_puts_r+0x84>
    35d8:	29001917 	ldw	r4,100(r5)
    35dc:	00f7ffc4 	movi	r3,-8193
    35e0:	10880014 	ori	r2,r2,8192
    35e4:	20c6703a 	and	r3,r4,r3
    35e8:	2880030d 	sth	r2,12(r5)
    35ec:	28c01915 	stw	r3,100(r5)
    35f0:	d9800404 	addi	r6,sp,16
    35f4:	8009883a 	mov	r4,r16
    35f8:	0009d080 	call	9d08 <__sfvwrite_r>
    35fc:	1000091e 	bne	r2,zero,3624 <_puts_r+0xb8>
    3600:	00800284 	movi	r2,10
    3604:	dfc00917 	ldw	ra,36(sp)
    3608:	dc400817 	ldw	r17,32(sp)
    360c:	dc000717 	ldw	r16,28(sp)
    3610:	dec00a04 	addi	sp,sp,40
    3614:	f800283a 	ret
    3618:	8009883a 	mov	r4,r16
    361c:	0001be40 	call	1be4 <__sinit>
    3620:	003fe906 	br	35c8 <__alt_mem_onchip_memory+0xf78035c8>
    3624:	00bfffc4 	movi	r2,-1
    3628:	003ff606 	br	3604 <__alt_mem_onchip_memory+0xf7803604>

0000362c <puts>:
    362c:	008000b4 	movhi	r2,2
    3630:	10931a04 	addi	r2,r2,19560
    3634:	200b883a 	mov	r5,r4
    3638:	11000017 	ldw	r4,0(r2)
    363c:	000356c1 	jmpi	356c <_puts_r>

00003640 <lflush>:
    3640:	2080030b 	ldhu	r2,12(r4)
    3644:	00c00244 	movi	r3,9
    3648:	1080024c 	andi	r2,r2,9
    364c:	10c00226 	beq	r2,r3,3658 <lflush+0x18>
    3650:	0005883a 	mov	r2,zero
    3654:	f800283a 	ret
    3658:	00018641 	jmpi	1864 <fflush>

0000365c <__srefill_r>:
    365c:	defffc04 	addi	sp,sp,-16
    3660:	dc400115 	stw	r17,4(sp)
    3664:	dc000015 	stw	r16,0(sp)
    3668:	dfc00315 	stw	ra,12(sp)
    366c:	dc800215 	stw	r18,8(sp)
    3670:	2023883a 	mov	r17,r4
    3674:	2821883a 	mov	r16,r5
    3678:	20000226 	beq	r4,zero,3684 <__srefill_r+0x28>
    367c:	20800e17 	ldw	r2,56(r4)
    3680:	10003c26 	beq	r2,zero,3774 <__srefill_r+0x118>
    3684:	80c0030b 	ldhu	r3,12(r16)
    3688:	1908000c 	andi	r4,r3,8192
    368c:	1805883a 	mov	r2,r3
    3690:	2000071e 	bne	r4,zero,36b0 <__srefill_r+0x54>
    3694:	81001917 	ldw	r4,100(r16)
    3698:	18880014 	ori	r2,r3,8192
    369c:	00f7ffc4 	movi	r3,-8193
    36a0:	20c8703a 	and	r4,r4,r3
    36a4:	8080030d 	sth	r2,12(r16)
    36a8:	1007883a 	mov	r3,r2
    36ac:	81001915 	stw	r4,100(r16)
    36b0:	80000115 	stw	zero,4(r16)
    36b4:	1100080c 	andi	r4,r2,32
    36b8:	2000571e 	bne	r4,zero,3818 <__srefill_r+0x1bc>
    36bc:	1100010c 	andi	r4,r2,4
    36c0:	20001f26 	beq	r4,zero,3740 <__srefill_r+0xe4>
    36c4:	81400c17 	ldw	r5,48(r16)
    36c8:	28000826 	beq	r5,zero,36ec <__srefill_r+0x90>
    36cc:	80801004 	addi	r2,r16,64
    36d0:	28800226 	beq	r5,r2,36dc <__srefill_r+0x80>
    36d4:	8809883a 	mov	r4,r17
    36d8:	0001eb00 	call	1eb0 <_free_r>
    36dc:	80800f17 	ldw	r2,60(r16)
    36e0:	80000c15 	stw	zero,48(r16)
    36e4:	80800115 	stw	r2,4(r16)
    36e8:	1000391e 	bne	r2,zero,37d0 <__srefill_r+0x174>
    36ec:	80800417 	ldw	r2,16(r16)
    36f0:	10004b26 	beq	r2,zero,3820 <__srefill_r+0x1c4>
    36f4:	8480030b 	ldhu	r18,12(r16)
    36f8:	908000cc 	andi	r2,r18,3
    36fc:	10001f1e 	bne	r2,zero,377c <__srefill_r+0x120>
    3700:	81800417 	ldw	r6,16(r16)
    3704:	80800817 	ldw	r2,32(r16)
    3708:	81c00517 	ldw	r7,20(r16)
    370c:	81400717 	ldw	r5,28(r16)
    3710:	81800015 	stw	r6,0(r16)
    3714:	8809883a 	mov	r4,r17
    3718:	103ee83a 	callr	r2
    371c:	80800115 	stw	r2,4(r16)
    3720:	00800e0e 	bge	zero,r2,375c <__srefill_r+0x100>
    3724:	0005883a 	mov	r2,zero
    3728:	dfc00317 	ldw	ra,12(sp)
    372c:	dc800217 	ldw	r18,8(sp)
    3730:	dc400117 	ldw	r17,4(sp)
    3734:	dc000017 	ldw	r16,0(sp)
    3738:	dec00404 	addi	sp,sp,16
    373c:	f800283a 	ret
    3740:	1100040c 	andi	r4,r2,16
    3744:	20003026 	beq	r4,zero,3808 <__srefill_r+0x1ac>
    3748:	1080020c 	andi	r2,r2,8
    374c:	1000241e 	bne	r2,zero,37e0 <__srefill_r+0x184>
    3750:	18c00114 	ori	r3,r3,4
    3754:	80c0030d 	sth	r3,12(r16)
    3758:	003fe406 	br	36ec <__alt_mem_onchip_memory+0xf78036ec>
    375c:	80c0030b 	ldhu	r3,12(r16)
    3760:	1000161e 	bne	r2,zero,37bc <__srefill_r+0x160>
    3764:	18c00814 	ori	r3,r3,32
    3768:	00bfffc4 	movi	r2,-1
    376c:	80c0030d 	sth	r3,12(r16)
    3770:	003fed06 	br	3728 <__alt_mem_onchip_memory+0xf7803728>
    3774:	0001be40 	call	1be4 <__sinit>
    3778:	003fc206 	br	3684 <__alt_mem_onchip_memory+0xf7803684>
    377c:	008000b4 	movhi	r2,2
    3780:	10931904 	addi	r2,r2,19556
    3784:	11000017 	ldw	r4,0(r2)
    3788:	01400034 	movhi	r5,0
    378c:	00800044 	movi	r2,1
    3790:	294d9004 	addi	r5,r5,13888
    3794:	8080030d 	sth	r2,12(r16)
    3798:	000269c0 	call	269c <_fwalk>
    379c:	00800244 	movi	r2,9
    37a0:	8480030d 	sth	r18,12(r16)
    37a4:	9480024c 	andi	r18,r18,9
    37a8:	90bfd51e 	bne	r18,r2,3700 <__alt_mem_onchip_memory+0xf7803700>
    37ac:	800b883a 	mov	r5,r16
    37b0:	8809883a 	mov	r4,r17
    37b4:	00015ec0 	call	15ec <__sflush_r>
    37b8:	003fd106 	br	3700 <__alt_mem_onchip_memory+0xf7803700>
    37bc:	18c01014 	ori	r3,r3,64
    37c0:	80000115 	stw	zero,4(r16)
    37c4:	00bfffc4 	movi	r2,-1
    37c8:	80c0030d 	sth	r3,12(r16)
    37cc:	003fd606 	br	3728 <__alt_mem_onchip_memory+0xf7803728>
    37d0:	80c00e17 	ldw	r3,56(r16)
    37d4:	0005883a 	mov	r2,zero
    37d8:	80c00015 	stw	r3,0(r16)
    37dc:	003fd206 	br	3728 <__alt_mem_onchip_memory+0xf7803728>
    37e0:	800b883a 	mov	r5,r16
    37e4:	8809883a 	mov	r4,r17
    37e8:	00018080 	call	1808 <_fflush_r>
    37ec:	10000a1e 	bne	r2,zero,3818 <__srefill_r+0x1bc>
    37f0:	8080030b 	ldhu	r2,12(r16)
    37f4:	00fffdc4 	movi	r3,-9
    37f8:	80000215 	stw	zero,8(r16)
    37fc:	1886703a 	and	r3,r3,r2
    3800:	80000615 	stw	zero,24(r16)
    3804:	003fd206 	br	3750 <__alt_mem_onchip_memory+0xf7803750>
    3808:	00800244 	movi	r2,9
    380c:	88800015 	stw	r2,0(r17)
    3810:	18c01014 	ori	r3,r3,64
    3814:	80c0030d 	sth	r3,12(r16)
    3818:	00bfffc4 	movi	r2,-1
    381c:	003fc206 	br	3728 <__alt_mem_onchip_memory+0xf7803728>
    3820:	800b883a 	mov	r5,r16
    3824:	8809883a 	mov	r4,r17
    3828:	0002a1c0 	call	2a1c <__smakebuf_r>
    382c:	003fb106 	br	36f4 <__alt_mem_onchip_memory+0xf78036f4>

00003830 <__srget_r>:
    3830:	defffd04 	addi	sp,sp,-12
    3834:	dc400115 	stw	r17,4(sp)
    3838:	dc000015 	stw	r16,0(sp)
    383c:	dfc00215 	stw	ra,8(sp)
    3840:	2023883a 	mov	r17,r4
    3844:	2821883a 	mov	r16,r5
    3848:	20000226 	beq	r4,zero,3854 <__srget_r+0x24>
    384c:	20800e17 	ldw	r2,56(r4)
    3850:	10001026 	beq	r2,zero,3894 <__srget_r+0x64>
    3854:	800b883a 	mov	r5,r16
    3858:	8809883a 	mov	r4,r17
    385c:	000365c0 	call	365c <__srefill_r>
    3860:	10000e1e 	bne	r2,zero,389c <__srget_r+0x6c>
    3864:	80c00017 	ldw	r3,0(r16)
    3868:	80800117 	ldw	r2,4(r16)
    386c:	19000044 	addi	r4,r3,1
    3870:	10bfffc4 	addi	r2,r2,-1
    3874:	80800115 	stw	r2,4(r16)
    3878:	81000015 	stw	r4,0(r16)
    387c:	18800003 	ldbu	r2,0(r3)
    3880:	dfc00217 	ldw	ra,8(sp)
    3884:	dc400117 	ldw	r17,4(sp)
    3888:	dc000017 	ldw	r16,0(sp)
    388c:	dec00304 	addi	sp,sp,12
    3890:	f800283a 	ret
    3894:	0001be40 	call	1be4 <__sinit>
    3898:	003fee06 	br	3854 <__alt_mem_onchip_memory+0xf7803854>
    389c:	00bfffc4 	movi	r2,-1
    38a0:	003ff706 	br	3880 <__alt_mem_onchip_memory+0xf7803880>

000038a4 <__srget>:
    38a4:	008000b4 	movhi	r2,2
    38a8:	10931a04 	addi	r2,r2,19560
    38ac:	200b883a 	mov	r5,r4
    38b0:	11000017 	ldw	r4,0(r2)
    38b4:	00038301 	jmpi	3830 <__srget_r>

000038b8 <_sbrk_r>:
    38b8:	defffd04 	addi	sp,sp,-12
    38bc:	dc000015 	stw	r16,0(sp)
    38c0:	040000b4 	movhi	r16,2
    38c4:	dc400115 	stw	r17,4(sp)
    38c8:	841b4504 	addi	r16,r16,27924
    38cc:	2023883a 	mov	r17,r4
    38d0:	2809883a 	mov	r4,r5
    38d4:	dfc00215 	stw	ra,8(sp)
    38d8:	80000015 	stw	zero,0(r16)
    38dc:	0012c780 	call	12c78 <sbrk>
    38e0:	00ffffc4 	movi	r3,-1
    38e4:	10c00526 	beq	r2,r3,38fc <_sbrk_r+0x44>
    38e8:	dfc00217 	ldw	ra,8(sp)
    38ec:	dc400117 	ldw	r17,4(sp)
    38f0:	dc000017 	ldw	r16,0(sp)
    38f4:	dec00304 	addi	sp,sp,12
    38f8:	f800283a 	ret
    38fc:	80c00017 	ldw	r3,0(r16)
    3900:	183ff926 	beq	r3,zero,38e8 <__alt_mem_onchip_memory+0xf78038e8>
    3904:	88c00015 	stw	r3,0(r17)
    3908:	003ff706 	br	38e8 <__alt_mem_onchip_memory+0xf78038e8>

0000390c <_sprintf_r>:
    390c:	deffe404 	addi	sp,sp,-112
    3910:	2807883a 	mov	r3,r5
    3914:	dfc01a15 	stw	ra,104(sp)
    3918:	d9c01b15 	stw	r7,108(sp)
    391c:	00a00034 	movhi	r2,32768
    3920:	10bfffc4 	addi	r2,r2,-1
    3924:	02008204 	movi	r8,520
    3928:	d8800215 	stw	r2,8(sp)
    392c:	d8800515 	stw	r2,20(sp)
    3930:	d9c01b04 	addi	r7,sp,108
    3934:	d80b883a 	mov	r5,sp
    3938:	00bfffc4 	movi	r2,-1
    393c:	d8c00015 	stw	r3,0(sp)
    3940:	d8c00415 	stw	r3,16(sp)
    3944:	da00030d 	sth	r8,12(sp)
    3948:	d880038d 	sth	r2,14(sp)
    394c:	0003ba40 	call	3ba4 <___svfprintf_internal_r>
    3950:	d8c00017 	ldw	r3,0(sp)
    3954:	18000005 	stb	zero,0(r3)
    3958:	dfc01a17 	ldw	ra,104(sp)
    395c:	dec01c04 	addi	sp,sp,112
    3960:	f800283a 	ret

00003964 <sprintf>:
    3964:	deffe304 	addi	sp,sp,-116
    3968:	2007883a 	mov	r3,r4
    396c:	dfc01a15 	stw	ra,104(sp)
    3970:	d9801b15 	stw	r6,108(sp)
    3974:	d9c01c15 	stw	r7,112(sp)
    3978:	010000b4 	movhi	r4,2
    397c:	21131a04 	addi	r4,r4,19560
    3980:	21000017 	ldw	r4,0(r4)
    3984:	00a00034 	movhi	r2,32768
    3988:	10bfffc4 	addi	r2,r2,-1
    398c:	280d883a 	mov	r6,r5
    3990:	02008204 	movi	r8,520
    3994:	d8800215 	stw	r2,8(sp)
    3998:	d8800515 	stw	r2,20(sp)
    399c:	d9c01b04 	addi	r7,sp,108
    39a0:	d80b883a 	mov	r5,sp
    39a4:	00bfffc4 	movi	r2,-1
    39a8:	d8c00015 	stw	r3,0(sp)
    39ac:	d8c00415 	stw	r3,16(sp)
    39b0:	da00030d 	sth	r8,12(sp)
    39b4:	d880038d 	sth	r2,14(sp)
    39b8:	0003ba40 	call	3ba4 <___svfprintf_internal_r>
    39bc:	d8c00017 	ldw	r3,0(sp)
    39c0:	18000005 	stb	zero,0(r3)
    39c4:	dfc01a17 	ldw	ra,104(sp)
    39c8:	dec01d04 	addi	sp,sp,116
    39cc:	f800283a 	ret

000039d0 <__sread>:
    39d0:	defffe04 	addi	sp,sp,-8
    39d4:	dc000015 	stw	r16,0(sp)
    39d8:	2821883a 	mov	r16,r5
    39dc:	2940038f 	ldh	r5,14(r5)
    39e0:	dfc00115 	stw	ra,4(sp)
    39e4:	000b6d80 	call	b6d8 <_read_r>
    39e8:	10000716 	blt	r2,zero,3a08 <__sread+0x38>
    39ec:	80c01417 	ldw	r3,80(r16)
    39f0:	1887883a 	add	r3,r3,r2
    39f4:	80c01415 	stw	r3,80(r16)
    39f8:	dfc00117 	ldw	ra,4(sp)
    39fc:	dc000017 	ldw	r16,0(sp)
    3a00:	dec00204 	addi	sp,sp,8
    3a04:	f800283a 	ret
    3a08:	80c0030b 	ldhu	r3,12(r16)
    3a0c:	18fbffcc 	andi	r3,r3,61439
    3a10:	80c0030d 	sth	r3,12(r16)
    3a14:	dfc00117 	ldw	ra,4(sp)
    3a18:	dc000017 	ldw	r16,0(sp)
    3a1c:	dec00204 	addi	sp,sp,8
    3a20:	f800283a 	ret

00003a24 <__seofread>:
    3a24:	0005883a 	mov	r2,zero
    3a28:	f800283a 	ret

00003a2c <__swrite>:
    3a2c:	2880030b 	ldhu	r2,12(r5)
    3a30:	defffb04 	addi	sp,sp,-20
    3a34:	dcc00315 	stw	r19,12(sp)
    3a38:	dc800215 	stw	r18,8(sp)
    3a3c:	dc400115 	stw	r17,4(sp)
    3a40:	dc000015 	stw	r16,0(sp)
    3a44:	dfc00415 	stw	ra,16(sp)
    3a48:	10c0400c 	andi	r3,r2,256
    3a4c:	2821883a 	mov	r16,r5
    3a50:	2023883a 	mov	r17,r4
    3a54:	3025883a 	mov	r18,r6
    3a58:	3827883a 	mov	r19,r7
    3a5c:	18000526 	beq	r3,zero,3a74 <__swrite+0x48>
    3a60:	2940038f 	ldh	r5,14(r5)
    3a64:	01c00084 	movi	r7,2
    3a68:	000d883a 	mov	r6,zero
    3a6c:	000a2f40 	call	a2f4 <_lseek_r>
    3a70:	8080030b 	ldhu	r2,12(r16)
    3a74:	8140038f 	ldh	r5,14(r16)
    3a78:	10bbffcc 	andi	r2,r2,61439
    3a7c:	980f883a 	mov	r7,r19
    3a80:	900d883a 	mov	r6,r18
    3a84:	8809883a 	mov	r4,r17
    3a88:	8080030d 	sth	r2,12(r16)
    3a8c:	dfc00417 	ldw	ra,16(sp)
    3a90:	dcc00317 	ldw	r19,12(sp)
    3a94:	dc800217 	ldw	r18,8(sp)
    3a98:	dc400117 	ldw	r17,4(sp)
    3a9c:	dc000017 	ldw	r16,0(sp)
    3aa0:	dec00504 	addi	sp,sp,20
    3aa4:	000804c1 	jmpi	804c <_write_r>

00003aa8 <__sseek>:
    3aa8:	defffe04 	addi	sp,sp,-8
    3aac:	dc000015 	stw	r16,0(sp)
    3ab0:	2821883a 	mov	r16,r5
    3ab4:	2940038f 	ldh	r5,14(r5)
    3ab8:	dfc00115 	stw	ra,4(sp)
    3abc:	000a2f40 	call	a2f4 <_lseek_r>
    3ac0:	00ffffc4 	movi	r3,-1
    3ac4:	10c00826 	beq	r2,r3,3ae8 <__sseek+0x40>
    3ac8:	80c0030b 	ldhu	r3,12(r16)
    3acc:	80801415 	stw	r2,80(r16)
    3ad0:	18c40014 	ori	r3,r3,4096
    3ad4:	80c0030d 	sth	r3,12(r16)
    3ad8:	dfc00117 	ldw	ra,4(sp)
    3adc:	dc000017 	ldw	r16,0(sp)
    3ae0:	dec00204 	addi	sp,sp,8
    3ae4:	f800283a 	ret
    3ae8:	80c0030b 	ldhu	r3,12(r16)
    3aec:	18fbffcc 	andi	r3,r3,61439
    3af0:	80c0030d 	sth	r3,12(r16)
    3af4:	dfc00117 	ldw	ra,4(sp)
    3af8:	dc000017 	ldw	r16,0(sp)
    3afc:	dec00204 	addi	sp,sp,8
    3b00:	f800283a 	ret

00003b04 <__sclose>:
    3b04:	2940038f 	ldh	r5,14(r5)
    3b08:	00082001 	jmpi	8200 <_close_r>

00003b0c <strlen>:
    3b0c:	208000cc 	andi	r2,r4,3
    3b10:	10002026 	beq	r2,zero,3b94 <strlen+0x88>
    3b14:	20800007 	ldb	r2,0(r4)
    3b18:	10002026 	beq	r2,zero,3b9c <strlen+0x90>
    3b1c:	2005883a 	mov	r2,r4
    3b20:	00000206 	br	3b2c <strlen+0x20>
    3b24:	10c00007 	ldb	r3,0(r2)
    3b28:	18001826 	beq	r3,zero,3b8c <strlen+0x80>
    3b2c:	10800044 	addi	r2,r2,1
    3b30:	10c000cc 	andi	r3,r2,3
    3b34:	183ffb1e 	bne	r3,zero,3b24 <__alt_mem_onchip_memory+0xf7803b24>
    3b38:	10c00017 	ldw	r3,0(r2)
    3b3c:	01ffbff4 	movhi	r7,65279
    3b40:	39ffbfc4 	addi	r7,r7,-257
    3b44:	00ca303a 	nor	r5,zero,r3
    3b48:	01a02074 	movhi	r6,32897
    3b4c:	19c7883a 	add	r3,r3,r7
    3b50:	31a02004 	addi	r6,r6,-32640
    3b54:	1946703a 	and	r3,r3,r5
    3b58:	1986703a 	and	r3,r3,r6
    3b5c:	1800091e 	bne	r3,zero,3b84 <strlen+0x78>
    3b60:	10800104 	addi	r2,r2,4
    3b64:	10c00017 	ldw	r3,0(r2)
    3b68:	19cb883a 	add	r5,r3,r7
    3b6c:	00c6303a 	nor	r3,zero,r3
    3b70:	28c6703a 	and	r3,r5,r3
    3b74:	1986703a 	and	r3,r3,r6
    3b78:	183ff926 	beq	r3,zero,3b60 <__alt_mem_onchip_memory+0xf7803b60>
    3b7c:	00000106 	br	3b84 <strlen+0x78>
    3b80:	10800044 	addi	r2,r2,1
    3b84:	10c00007 	ldb	r3,0(r2)
    3b88:	183ffd1e 	bne	r3,zero,3b80 <__alt_mem_onchip_memory+0xf7803b80>
    3b8c:	1105c83a 	sub	r2,r2,r4
    3b90:	f800283a 	ret
    3b94:	2005883a 	mov	r2,r4
    3b98:	003fe706 	br	3b38 <__alt_mem_onchip_memory+0xf7803b38>
    3b9c:	0005883a 	mov	r2,zero
    3ba0:	f800283a 	ret

00003ba4 <___svfprintf_internal_r>:
    3ba4:	deffb704 	addi	sp,sp,-292
    3ba8:	dfc04815 	stw	ra,288(sp)
    3bac:	ddc04615 	stw	r23,280(sp)
    3bb0:	d9402c15 	stw	r5,176(sp)
    3bb4:	d9003915 	stw	r4,228(sp)
    3bb8:	302f883a 	mov	r23,r6
    3bbc:	d9c02d15 	stw	r7,180(sp)
    3bc0:	df004715 	stw	fp,284(sp)
    3bc4:	dd804515 	stw	r22,276(sp)
    3bc8:	dd404415 	stw	r21,272(sp)
    3bcc:	dd004315 	stw	r20,268(sp)
    3bd0:	dcc04215 	stw	r19,264(sp)
    3bd4:	dc804115 	stw	r18,260(sp)
    3bd8:	dc404015 	stw	r17,256(sp)
    3bdc:	dc003f15 	stw	r16,252(sp)
    3be0:	000a2c40 	call	a2c4 <_localeconv_r>
    3be4:	10800017 	ldw	r2,0(r2)
    3be8:	1009883a 	mov	r4,r2
    3bec:	d8803415 	stw	r2,208(sp)
    3bf0:	0003b0c0 	call	3b0c <strlen>
    3bf4:	d8c02c17 	ldw	r3,176(sp)
    3bf8:	d8803815 	stw	r2,224(sp)
    3bfc:	1880030b 	ldhu	r2,12(r3)
    3c00:	1080200c 	andi	r2,r2,128
    3c04:	10000226 	beq	r2,zero,3c10 <___svfprintf_internal_r+0x6c>
    3c08:	18800417 	ldw	r2,16(r3)
    3c0c:	10067f26 	beq	r2,zero,560c <___svfprintf_internal_r+0x1a68>
    3c10:	dcc03917 	ldw	r19,228(sp)
    3c14:	d8c00404 	addi	r3,sp,16
    3c18:	054000b4 	movhi	r21,2
    3c1c:	d9001e04 	addi	r4,sp,120
    3c20:	ad4a0184 	addi	r21,r21,10246
    3c24:	d8c01e15 	stw	r3,120(sp)
    3c28:	d8002015 	stw	zero,128(sp)
    3c2c:	d8001f15 	stw	zero,124(sp)
    3c30:	d8003315 	stw	zero,204(sp)
    3c34:	d8003615 	stw	zero,216(sp)
    3c38:	d8003715 	stw	zero,220(sp)
    3c3c:	1811883a 	mov	r8,r3
    3c40:	d8003a15 	stw	zero,232(sp)
    3c44:	d8003b15 	stw	zero,236(sp)
    3c48:	d8002f15 	stw	zero,188(sp)
    3c4c:	d9002815 	stw	r4,160(sp)
    3c50:	b8800007 	ldb	r2,0(r23)
    3c54:	10026726 	beq	r2,zero,45f4 <___svfprintf_internal_r+0xa50>
    3c58:	00c00944 	movi	r3,37
    3c5c:	b821883a 	mov	r16,r23
    3c60:	10c0021e 	bne	r2,r3,3c6c <___svfprintf_internal_r+0xc8>
    3c64:	00001406 	br	3cb8 <___svfprintf_internal_r+0x114>
    3c68:	10c00326 	beq	r2,r3,3c78 <___svfprintf_internal_r+0xd4>
    3c6c:	84000044 	addi	r16,r16,1
    3c70:	80800007 	ldb	r2,0(r16)
    3c74:	103ffc1e 	bne	r2,zero,3c68 <__alt_mem_onchip_memory+0xf7803c68>
    3c78:	85e3c83a 	sub	r17,r16,r23
    3c7c:	88000e26 	beq	r17,zero,3cb8 <___svfprintf_internal_r+0x114>
    3c80:	d8c02017 	ldw	r3,128(sp)
    3c84:	d8801f17 	ldw	r2,124(sp)
    3c88:	45c00015 	stw	r23,0(r8)
    3c8c:	1c47883a 	add	r3,r3,r17
    3c90:	10800044 	addi	r2,r2,1
    3c94:	d8c02015 	stw	r3,128(sp)
    3c98:	44400115 	stw	r17,4(r8)
    3c9c:	d8801f15 	stw	r2,124(sp)
    3ca0:	00c001c4 	movi	r3,7
    3ca4:	18809716 	blt	r3,r2,3f04 <___svfprintf_internal_r+0x360>
    3ca8:	42000204 	addi	r8,r8,8
    3cac:	d9402f17 	ldw	r5,188(sp)
    3cb0:	2c4b883a 	add	r5,r5,r17
    3cb4:	d9402f15 	stw	r5,188(sp)
    3cb8:	80800007 	ldb	r2,0(r16)
    3cbc:	10009826 	beq	r2,zero,3f20 <___svfprintf_internal_r+0x37c>
    3cc0:	84400047 	ldb	r17,1(r16)
    3cc4:	00bfffc4 	movi	r2,-1
    3cc8:	85c00044 	addi	r23,r16,1
    3ccc:	d8002785 	stb	zero,158(sp)
    3cd0:	0007883a 	mov	r3,zero
    3cd4:	000f883a 	mov	r7,zero
    3cd8:	d8802915 	stw	r2,164(sp)
    3cdc:	d8003115 	stw	zero,196(sp)
    3ce0:	0025883a 	mov	r18,zero
    3ce4:	01401604 	movi	r5,88
    3ce8:	01800244 	movi	r6,9
    3cec:	02800a84 	movi	r10,42
    3cf0:	02401b04 	movi	r9,108
    3cf4:	bdc00044 	addi	r23,r23,1
    3cf8:	88bff804 	addi	r2,r17,-32
    3cfc:	2882f036 	bltu	r5,r2,48c0 <___svfprintf_internal_r+0xd1c>
    3d00:	100490ba 	slli	r2,r2,2
    3d04:	01000034 	movhi	r4,0
    3d08:	210f4604 	addi	r4,r4,15640
    3d0c:	1105883a 	add	r2,r2,r4
    3d10:	10800017 	ldw	r2,0(r2)
    3d14:	1000683a 	jmp	r2
    3d18:	00004828 	cmpgeui	zero,zero,288
    3d1c:	000048c0 	call	48c <borra_lineas_pantalla+0x8c>
    3d20:	000048c0 	call	48c <borra_lineas_pantalla+0x8c>
    3d24:	0000481c 	xori	zero,zero,288
    3d28:	000048c0 	call	48c <borra_lineas_pantalla+0x8c>
    3d2c:	000048c0 	call	48c <borra_lineas_pantalla+0x8c>
    3d30:	000048c0 	call	48c <borra_lineas_pantalla+0x8c>
    3d34:	000048c0 	call	48c <borra_lineas_pantalla+0x8c>
    3d38:	000048c0 	call	48c <borra_lineas_pantalla+0x8c>
    3d3c:	000048c0 	call	48c <borra_lineas_pantalla+0x8c>
    3d40:	00003f7c 	xorhi	zero,zero,253
    3d44:	00004758 	cmpnei	zero,zero,285
    3d48:	000048c0 	call	48c <borra_lineas_pantalla+0x8c>
    3d4c:	00003e8c 	andi	zero,zero,250
    3d50:	00003fa4 	muli	zero,zero,254
    3d54:	000048c0 	call	48c <borra_lineas_pantalla+0x8c>
    3d58:	00004018 	cmpnei	zero,zero,256
    3d5c:	00003fe4 	muli	zero,zero,255
    3d60:	00003fe4 	muli	zero,zero,255
    3d64:	00003fe4 	muli	zero,zero,255
    3d68:	00003fe4 	muli	zero,zero,255
    3d6c:	00003fe4 	muli	zero,zero,255
    3d70:	00003fe4 	muli	zero,zero,255
    3d74:	00003fe4 	muli	zero,zero,255
    3d78:	00003fe4 	muli	zero,zero,255
    3d7c:	00003fe4 	muli	zero,zero,255
    3d80:	000048c0 	call	48c <borra_lineas_pantalla+0x8c>
    3d84:	000048c0 	call	48c <borra_lineas_pantalla+0x8c>
    3d88:	000048c0 	call	48c <borra_lineas_pantalla+0x8c>
    3d8c:	000048c0 	call	48c <borra_lineas_pantalla+0x8c>
    3d90:	000048c0 	call	48c <borra_lineas_pantalla+0x8c>
    3d94:	000048c0 	call	48c <borra_lineas_pantalla+0x8c>
    3d98:	000048c0 	call	48c <borra_lineas_pantalla+0x8c>
    3d9c:	000048c0 	call	48c <borra_lineas_pantalla+0x8c>
    3da0:	000048c0 	call	48c <borra_lineas_pantalla+0x8c>
    3da4:	000048c0 	call	48c <borra_lineas_pantalla+0x8c>
    3da8:	000040d0 	cmplti	zero,zero,259
    3dac:	00004024 	muli	zero,zero,256
    3db0:	000048c0 	call	48c <borra_lineas_pantalla+0x8c>
    3db4:	00004024 	muli	zero,zero,256
    3db8:	000048c0 	call	48c <borra_lineas_pantalla+0x8c>
    3dbc:	000048c0 	call	48c <borra_lineas_pantalla+0x8c>
    3dc0:	000048c0 	call	48c <borra_lineas_pantalla+0x8c>
    3dc4:	000048c0 	call	48c <borra_lineas_pantalla+0x8c>
    3dc8:	000040c4 	movi	zero,259
    3dcc:	000048c0 	call	48c <borra_lineas_pantalla+0x8c>
    3dd0:	000048c0 	call	48c <borra_lineas_pantalla+0x8c>
    3dd4:	0000418c 	andi	zero,zero,262
    3dd8:	000048c0 	call	48c <borra_lineas_pantalla+0x8c>
    3ddc:	000048c0 	call	48c <borra_lineas_pantalla+0x8c>
    3de0:	000048c0 	call	48c <borra_lineas_pantalla+0x8c>
    3de4:	000048c0 	call	48c <borra_lineas_pantalla+0x8c>
    3de8:	000048c0 	call	48c <borra_lineas_pantalla+0x8c>
    3dec:	000045fc 	xorhi	zero,zero,279
    3df0:	000048c0 	call	48c <borra_lineas_pantalla+0x8c>
    3df4:	000048c0 	call	48c <borra_lineas_pantalla+0x8c>
    3df8:	0000465c 	xori	zero,zero,281
    3dfc:	000048c0 	call	48c <borra_lineas_pantalla+0x8c>
    3e00:	000048c0 	call	48c <borra_lineas_pantalla+0x8c>
    3e04:	000048c0 	call	48c <borra_lineas_pantalla+0x8c>
    3e08:	000048c0 	call	48c <borra_lineas_pantalla+0x8c>
    3e0c:	000048c0 	call	48c <borra_lineas_pantalla+0x8c>
    3e10:	000048c0 	call	48c <borra_lineas_pantalla+0x8c>
    3e14:	000048c0 	call	48c <borra_lineas_pantalla+0x8c>
    3e18:	000048c0 	call	48c <borra_lineas_pantalla+0x8c>
    3e1c:	000048c0 	call	48c <borra_lineas_pantalla+0x8c>
    3e20:	000048c0 	call	48c <borra_lineas_pantalla+0x8c>
    3e24:	0000470c 	andi	zero,zero,284
    3e28:	00004848 	cmpgei	zero,zero,289
    3e2c:	00004024 	muli	zero,zero,256
    3e30:	00004024 	muli	zero,zero,256
    3e34:	00004024 	muli	zero,zero,256
    3e38:	0000489c 	xori	zero,zero,290
    3e3c:	00004848 	cmpgei	zero,zero,289
    3e40:	000048c0 	call	48c <borra_lineas_pantalla+0x8c>
    3e44:	000048c0 	call	48c <borra_lineas_pantalla+0x8c>
    3e48:	00004858 	cmpnei	zero,zero,289
    3e4c:	000048c0 	call	48c <borra_lineas_pantalla+0x8c>
    3e50:	00004868 	cmpgeui	zero,zero,289
    3e54:	00004748 	cmpgei	zero,zero,285
    3e58:	00003e98 	cmpnei	zero,zero,250
    3e5c:	00004768 	cmpgeui	zero,zero,285
    3e60:	000048c0 	call	48c <borra_lineas_pantalla+0x8c>
    3e64:	00004774 	movhi	zero,285
    3e68:	000048c0 	call	48c <borra_lineas_pantalla+0x8c>
    3e6c:	000047d0 	cmplti	zero,zero,287
    3e70:	000048c0 	call	48c <borra_lineas_pantalla+0x8c>
    3e74:	000048c0 	call	48c <borra_lineas_pantalla+0x8c>
    3e78:	000047e0 	cmpeqi	zero,zero,287
    3e7c:	d9003117 	ldw	r4,196(sp)
    3e80:	d8802d15 	stw	r2,180(sp)
    3e84:	0109c83a 	sub	r4,zero,r4
    3e88:	d9003115 	stw	r4,196(sp)
    3e8c:	94800114 	ori	r18,r18,4
    3e90:	bc400007 	ldb	r17,0(r23)
    3e94:	003f9706 	br	3cf4 <__alt_mem_onchip_memory+0xf7803cf4>
    3e98:	00800c04 	movi	r2,48
    3e9c:	d9002d17 	ldw	r4,180(sp)
    3ea0:	d9402917 	ldw	r5,164(sp)
    3ea4:	d8802705 	stb	r2,156(sp)
    3ea8:	00801e04 	movi	r2,120
    3eac:	d8802745 	stb	r2,157(sp)
    3eb0:	d8002785 	stb	zero,158(sp)
    3eb4:	20c00104 	addi	r3,r4,4
    3eb8:	25000017 	ldw	r20,0(r4)
    3ebc:	002d883a 	mov	r22,zero
    3ec0:	90800094 	ori	r2,r18,2
    3ec4:	28028616 	blt	r5,zero,48e0 <___svfprintf_internal_r+0xd3c>
    3ec8:	00bfdfc4 	movi	r2,-129
    3ecc:	90a4703a 	and	r18,r18,r2
    3ed0:	d8c02d15 	stw	r3,180(sp)
    3ed4:	94800094 	ori	r18,r18,2
    3ed8:	a002731e 	bne	r20,zero,48a8 <___svfprintf_internal_r+0xd04>
    3edc:	008000b4 	movhi	r2,2
    3ee0:	1089fa04 	addi	r2,r2,10216
    3ee4:	d8803a15 	stw	r2,232(sp)
    3ee8:	04401e04 	movi	r17,120
    3eec:	d8c02917 	ldw	r3,164(sp)
    3ef0:	0039883a 	mov	fp,zero
    3ef4:	1801d526 	beq	r3,zero,464c <___svfprintf_internal_r+0xaa8>
    3ef8:	0029883a 	mov	r20,zero
    3efc:	002d883a 	mov	r22,zero
    3f00:	0001f106 	br	46c8 <___svfprintf_internal_r+0xb24>
    3f04:	d9402c17 	ldw	r5,176(sp)
    3f08:	d9801e04 	addi	r6,sp,120
    3f0c:	9809883a 	mov	r4,r19
    3f10:	000bdec0 	call	bdec <__ssprint_r>
    3f14:	1000081e 	bne	r2,zero,3f38 <___svfprintf_internal_r+0x394>
    3f18:	da000404 	addi	r8,sp,16
    3f1c:	003f6306 	br	3cac <__alt_mem_onchip_memory+0xf7803cac>
    3f20:	d8802017 	ldw	r2,128(sp)
    3f24:	10000426 	beq	r2,zero,3f38 <___svfprintf_internal_r+0x394>
    3f28:	d9402c17 	ldw	r5,176(sp)
    3f2c:	d9003917 	ldw	r4,228(sp)
    3f30:	d9801e04 	addi	r6,sp,120
    3f34:	000bdec0 	call	bdec <__ssprint_r>
    3f38:	d8802c17 	ldw	r2,176(sp)
    3f3c:	10c0030b 	ldhu	r3,12(r2)
    3f40:	d8802f17 	ldw	r2,188(sp)
    3f44:	18c0100c 	andi	r3,r3,64
    3f48:	1805f51e 	bne	r3,zero,5720 <___svfprintf_internal_r+0x1b7c>
    3f4c:	dfc04817 	ldw	ra,288(sp)
    3f50:	df004717 	ldw	fp,284(sp)
    3f54:	ddc04617 	ldw	r23,280(sp)
    3f58:	dd804517 	ldw	r22,276(sp)
    3f5c:	dd404417 	ldw	r21,272(sp)
    3f60:	dd004317 	ldw	r20,268(sp)
    3f64:	dcc04217 	ldw	r19,264(sp)
    3f68:	dc804117 	ldw	r18,260(sp)
    3f6c:	dc404017 	ldw	r17,256(sp)
    3f70:	dc003f17 	ldw	r16,252(sp)
    3f74:	dec04904 	addi	sp,sp,292
    3f78:	f800283a 	ret
    3f7c:	d8802d17 	ldw	r2,180(sp)
    3f80:	d9002d17 	ldw	r4,180(sp)
    3f84:	10800017 	ldw	r2,0(r2)
    3f88:	d8803115 	stw	r2,196(sp)
    3f8c:	20800104 	addi	r2,r4,4
    3f90:	d9003117 	ldw	r4,196(sp)
    3f94:	203fb916 	blt	r4,zero,3e7c <__alt_mem_onchip_memory+0xf7803e7c>
    3f98:	d8802d15 	stw	r2,180(sp)
    3f9c:	bc400007 	ldb	r17,0(r23)
    3fa0:	003f5406 	br	3cf4 <__alt_mem_onchip_memory+0xf7803cf4>
    3fa4:	bc400007 	ldb	r17,0(r23)
    3fa8:	bac00044 	addi	r11,r23,1
    3fac:	8a873926 	beq	r17,r10,5c94 <___svfprintf_internal_r+0x20f0>
    3fb0:	88bff404 	addi	r2,r17,-48
    3fb4:	0009883a 	mov	r4,zero
    3fb8:	30868836 	bltu	r6,r2,59dc <___svfprintf_internal_r+0x1e38>
    3fbc:	5c400007 	ldb	r17,0(r11)
    3fc0:	210002a4 	muli	r4,r4,10
    3fc4:	5dc00044 	addi	r23,r11,1
    3fc8:	b817883a 	mov	r11,r23
    3fcc:	2089883a 	add	r4,r4,r2
    3fd0:	88bff404 	addi	r2,r17,-48
    3fd4:	30bff92e 	bgeu	r6,r2,3fbc <__alt_mem_onchip_memory+0xf7803fbc>
    3fd8:	2005d716 	blt	r4,zero,5738 <___svfprintf_internal_r+0x1b94>
    3fdc:	d9002915 	stw	r4,164(sp)
    3fe0:	003f4506 	br	3cf8 <__alt_mem_onchip_memory+0xf7803cf8>
    3fe4:	b809883a 	mov	r4,r23
    3fe8:	d8003115 	stw	zero,196(sp)
    3fec:	88bff404 	addi	r2,r17,-48
    3ff0:	0017883a 	mov	r11,zero
    3ff4:	24400007 	ldb	r17,0(r4)
    3ff8:	5ac002a4 	muli	r11,r11,10
    3ffc:	bdc00044 	addi	r23,r23,1
    4000:	b809883a 	mov	r4,r23
    4004:	12d7883a 	add	r11,r2,r11
    4008:	88bff404 	addi	r2,r17,-48
    400c:	30bff92e 	bgeu	r6,r2,3ff4 <__alt_mem_onchip_memory+0xf7803ff4>
    4010:	dac03115 	stw	r11,196(sp)
    4014:	003f3806 	br	3cf8 <__alt_mem_onchip_memory+0xf7803cf8>
    4018:	94802014 	ori	r18,r18,128
    401c:	bc400007 	ldb	r17,0(r23)
    4020:	003f3406 	br	3cf4 <__alt_mem_onchip_memory+0xf7803cf4>
    4024:	18c03fcc 	andi	r3,r3,255
    4028:	1807471e 	bne	r3,zero,5d48 <___svfprintf_internal_r+0x21a4>
    402c:	9080020c 	andi	r2,r18,8
    4030:	10047d26 	beq	r2,zero,5228 <___svfprintf_internal_r+0x1684>
    4034:	d8c02d17 	ldw	r3,180(sp)
    4038:	d9002d17 	ldw	r4,180(sp)
    403c:	d9402d17 	ldw	r5,180(sp)
    4040:	18c00017 	ldw	r3,0(r3)
    4044:	21000117 	ldw	r4,4(r4)
    4048:	29400204 	addi	r5,r5,8
    404c:	d8c03615 	stw	r3,216(sp)
    4050:	d9003715 	stw	r4,220(sp)
    4054:	d9402d15 	stw	r5,180(sp)
    4058:	d9003617 	ldw	r4,216(sp)
    405c:	d9403717 	ldw	r5,220(sp)
    4060:	da003e15 	stw	r8,248(sp)
    4064:	04000044 	movi	r16,1
    4068:	000bc9c0 	call	bc9c <__fpclassifyd>
    406c:	da003e17 	ldw	r8,248(sp)
    4070:	14044b1e 	bne	r2,r16,51a0 <___svfprintf_internal_r+0x15fc>
    4074:	d9003617 	ldw	r4,216(sp)
    4078:	d9403717 	ldw	r5,220(sp)
    407c:	000d883a 	mov	r6,zero
    4080:	000f883a 	mov	r7,zero
    4084:	0010da80 	call	10da8 <__ledf2>
    4088:	da003e17 	ldw	r8,248(sp)
    408c:	1005f316 	blt	r2,zero,585c <___svfprintf_internal_r+0x1cb8>
    4090:	df002783 	ldbu	fp,158(sp)
    4094:	008011c4 	movi	r2,71
    4098:	1445590e 	bge	r2,r17,5600 <___svfprintf_internal_r+0x1a5c>
    409c:	040000b4 	movhi	r16,2
    40a0:	8409f204 	addi	r16,r16,10184
    40a4:	00c000c4 	movi	r3,3
    40a8:	00bfdfc4 	movi	r2,-129
    40ac:	d8c02a15 	stw	r3,168(sp)
    40b0:	90a4703a 	and	r18,r18,r2
    40b4:	d8c02e15 	stw	r3,184(sp)
    40b8:	d8002915 	stw	zero,164(sp)
    40bc:	d8003215 	stw	zero,200(sp)
    40c0:	00006606 	br	425c <___svfprintf_internal_r+0x6b8>
    40c4:	94800214 	ori	r18,r18,8
    40c8:	bc400007 	ldb	r17,0(r23)
    40cc:	003f0906 	br	3cf4 <__alt_mem_onchip_memory+0xf7803cf4>
    40d0:	18c03fcc 	andi	r3,r3,255
    40d4:	1807181e 	bne	r3,zero,5d38 <___svfprintf_internal_r+0x2194>
    40d8:	94800414 	ori	r18,r18,16
    40dc:	9080080c 	andi	r2,r18,32
    40e0:	10039626 	beq	r2,zero,4f3c <___svfprintf_internal_r+0x1398>
    40e4:	d9402d17 	ldw	r5,180(sp)
    40e8:	28800117 	ldw	r2,4(r5)
    40ec:	2d000017 	ldw	r20,0(r5)
    40f0:	29400204 	addi	r5,r5,8
    40f4:	d9402d15 	stw	r5,180(sp)
    40f8:	102d883a 	mov	r22,r2
    40fc:	10039816 	blt	r2,zero,4f60 <___svfprintf_internal_r+0x13bc>
    4100:	d9402917 	ldw	r5,164(sp)
    4104:	df002783 	ldbu	fp,158(sp)
    4108:	2803ab16 	blt	r5,zero,4fb8 <___svfprintf_internal_r+0x1414>
    410c:	00ffdfc4 	movi	r3,-129
    4110:	a584b03a 	or	r2,r20,r22
    4114:	90e4703a 	and	r18,r18,r3
    4118:	10014a26 	beq	r2,zero,4644 <___svfprintf_internal_r+0xaa0>
    411c:	b0034b26 	beq	r22,zero,4e4c <___svfprintf_internal_r+0x12a8>
    4120:	dc402a15 	stw	r17,168(sp)
    4124:	dc001e04 	addi	r16,sp,120
    4128:	b023883a 	mov	r17,r22
    412c:	402d883a 	mov	r22,r8
    4130:	a009883a 	mov	r4,r20
    4134:	880b883a 	mov	r5,r17
    4138:	01800284 	movi	r6,10
    413c:	000f883a 	mov	r7,zero
    4140:	000f3c40 	call	f3c4 <__umoddi3>
    4144:	10800c04 	addi	r2,r2,48
    4148:	843fffc4 	addi	r16,r16,-1
    414c:	a009883a 	mov	r4,r20
    4150:	880b883a 	mov	r5,r17
    4154:	80800005 	stb	r2,0(r16)
    4158:	01800284 	movi	r6,10
    415c:	000f883a 	mov	r7,zero
    4160:	000ee4c0 	call	ee4c <__udivdi3>
    4164:	1029883a 	mov	r20,r2
    4168:	10c4b03a 	or	r2,r2,r3
    416c:	1823883a 	mov	r17,r3
    4170:	103fef1e 	bne	r2,zero,4130 <__alt_mem_onchip_memory+0xf7804130>
    4174:	d8c02817 	ldw	r3,160(sp)
    4178:	dc402a17 	ldw	r17,168(sp)
    417c:	b011883a 	mov	r8,r22
    4180:	1c07c83a 	sub	r3,r3,r16
    4184:	d8c02e15 	stw	r3,184(sp)
    4188:	00002e06 	br	4244 <___svfprintf_internal_r+0x6a0>
    418c:	18c03fcc 	andi	r3,r3,255
    4190:	1806e71e 	bne	r3,zero,5d30 <___svfprintf_internal_r+0x218c>
    4194:	94800414 	ori	r18,r18,16
    4198:	9080080c 	andi	r2,r18,32
    419c:	1002d426 	beq	r2,zero,4cf0 <___svfprintf_internal_r+0x114c>
    41a0:	d9402d17 	ldw	r5,180(sp)
    41a4:	d8c02917 	ldw	r3,164(sp)
    41a8:	d8002785 	stb	zero,158(sp)
    41ac:	28800204 	addi	r2,r5,8
    41b0:	2d000017 	ldw	r20,0(r5)
    41b4:	2d800117 	ldw	r22,4(r5)
    41b8:	18041516 	blt	r3,zero,5210 <___svfprintf_internal_r+0x166c>
    41bc:	013fdfc4 	movi	r4,-129
    41c0:	a586b03a 	or	r3,r20,r22
    41c4:	d8802d15 	stw	r2,180(sp)
    41c8:	9124703a 	and	r18,r18,r4
    41cc:	1802d51e 	bne	r3,zero,4d24 <___svfprintf_internal_r+0x1180>
    41d0:	d9402917 	ldw	r5,164(sp)
    41d4:	0039883a 	mov	fp,zero
    41d8:	2806be26 	beq	r5,zero,5cd4 <___svfprintf_internal_r+0x2130>
    41dc:	0029883a 	mov	r20,zero
    41e0:	002d883a 	mov	r22,zero
    41e4:	dc001e04 	addi	r16,sp,120
    41e8:	a006d0fa 	srli	r3,r20,3
    41ec:	b008977a 	slli	r4,r22,29
    41f0:	b02cd0fa 	srli	r22,r22,3
    41f4:	a50001cc 	andi	r20,r20,7
    41f8:	a0800c04 	addi	r2,r20,48
    41fc:	843fffc4 	addi	r16,r16,-1
    4200:	20e8b03a 	or	r20,r4,r3
    4204:	80800005 	stb	r2,0(r16)
    4208:	a586b03a 	or	r3,r20,r22
    420c:	183ff61e 	bne	r3,zero,41e8 <__alt_mem_onchip_memory+0xf78041e8>
    4210:	90c0004c 	andi	r3,r18,1
    4214:	18013926 	beq	r3,zero,46fc <___svfprintf_internal_r+0xb58>
    4218:	10803fcc 	andi	r2,r2,255
    421c:	1080201c 	xori	r2,r2,128
    4220:	10bfe004 	addi	r2,r2,-128
    4224:	00c00c04 	movi	r3,48
    4228:	10c13426 	beq	r2,r3,46fc <___svfprintf_internal_r+0xb58>
    422c:	80ffffc5 	stb	r3,-1(r16)
    4230:	d8c02817 	ldw	r3,160(sp)
    4234:	80bfffc4 	addi	r2,r16,-1
    4238:	1021883a 	mov	r16,r2
    423c:	1887c83a 	sub	r3,r3,r2
    4240:	d8c02e15 	stw	r3,184(sp)
    4244:	d8802e17 	ldw	r2,184(sp)
    4248:	d9002917 	ldw	r4,164(sp)
    424c:	1100010e 	bge	r2,r4,4254 <___svfprintf_internal_r+0x6b0>
    4250:	2005883a 	mov	r2,r4
    4254:	d8802a15 	stw	r2,168(sp)
    4258:	d8003215 	stw	zero,200(sp)
    425c:	e7003fcc 	andi	fp,fp,255
    4260:	e700201c 	xori	fp,fp,128
    4264:	e73fe004 	addi	fp,fp,-128
    4268:	e0000326 	beq	fp,zero,4278 <___svfprintf_internal_r+0x6d4>
    426c:	d8c02a17 	ldw	r3,168(sp)
    4270:	18c00044 	addi	r3,r3,1
    4274:	d8c02a15 	stw	r3,168(sp)
    4278:	90c0008c 	andi	r3,r18,2
    427c:	d8c02b15 	stw	r3,172(sp)
    4280:	18000326 	beq	r3,zero,4290 <___svfprintf_internal_r+0x6ec>
    4284:	d8c02a17 	ldw	r3,168(sp)
    4288:	18c00084 	addi	r3,r3,2
    428c:	d8c02a15 	stw	r3,168(sp)
    4290:	90c0210c 	andi	r3,r18,132
    4294:	d8c03015 	stw	r3,192(sp)
    4298:	1801a11e 	bne	r3,zero,4920 <___svfprintf_internal_r+0xd7c>
    429c:	d9003117 	ldw	r4,196(sp)
    42a0:	d8c02a17 	ldw	r3,168(sp)
    42a4:	20e9c83a 	sub	r20,r4,r3
    42a8:	05019d0e 	bge	zero,r20,4920 <___svfprintf_internal_r+0xd7c>
    42ac:	02400404 	movi	r9,16
    42b0:	d8c02017 	ldw	r3,128(sp)
    42b4:	d8801f17 	ldw	r2,124(sp)
    42b8:	4d051b0e 	bge	r9,r20,5728 <___svfprintf_internal_r+0x1b84>
    42bc:	014000b4 	movhi	r5,2
    42c0:	294a0584 	addi	r5,r5,10262
    42c4:	dc403c15 	stw	r17,240(sp)
    42c8:	d9403515 	stw	r5,212(sp)
    42cc:	a023883a 	mov	r17,r20
    42d0:	482d883a 	mov	r22,r9
    42d4:	9029883a 	mov	r20,r18
    42d8:	070001c4 	movi	fp,7
    42dc:	8025883a 	mov	r18,r16
    42e0:	dc002c17 	ldw	r16,176(sp)
    42e4:	00000306 	br	42f4 <___svfprintf_internal_r+0x750>
    42e8:	8c7ffc04 	addi	r17,r17,-16
    42ec:	42000204 	addi	r8,r8,8
    42f0:	b440130e 	bge	r22,r17,4340 <___svfprintf_internal_r+0x79c>
    42f4:	010000b4 	movhi	r4,2
    42f8:	18c00404 	addi	r3,r3,16
    42fc:	10800044 	addi	r2,r2,1
    4300:	210a0584 	addi	r4,r4,10262
    4304:	41000015 	stw	r4,0(r8)
    4308:	45800115 	stw	r22,4(r8)
    430c:	d8c02015 	stw	r3,128(sp)
    4310:	d8801f15 	stw	r2,124(sp)
    4314:	e0bff40e 	bge	fp,r2,42e8 <__alt_mem_onchip_memory+0xf78042e8>
    4318:	d9801e04 	addi	r6,sp,120
    431c:	800b883a 	mov	r5,r16
    4320:	9809883a 	mov	r4,r19
    4324:	000bdec0 	call	bdec <__ssprint_r>
    4328:	103f031e 	bne	r2,zero,3f38 <__alt_mem_onchip_memory+0xf7803f38>
    432c:	8c7ffc04 	addi	r17,r17,-16
    4330:	d8c02017 	ldw	r3,128(sp)
    4334:	d8801f17 	ldw	r2,124(sp)
    4338:	da000404 	addi	r8,sp,16
    433c:	b47fed16 	blt	r22,r17,42f4 <__alt_mem_onchip_memory+0xf78042f4>
    4340:	9021883a 	mov	r16,r18
    4344:	a025883a 	mov	r18,r20
    4348:	8829883a 	mov	r20,r17
    434c:	dc403c17 	ldw	r17,240(sp)
    4350:	d9403517 	ldw	r5,212(sp)
    4354:	a0c7883a 	add	r3,r20,r3
    4358:	10800044 	addi	r2,r2,1
    435c:	41400015 	stw	r5,0(r8)
    4360:	45000115 	stw	r20,4(r8)
    4364:	d8c02015 	stw	r3,128(sp)
    4368:	d8801f15 	stw	r2,124(sp)
    436c:	010001c4 	movi	r4,7
    4370:	20829f16 	blt	r4,r2,4df0 <___svfprintf_internal_r+0x124c>
    4374:	df002787 	ldb	fp,158(sp)
    4378:	42000204 	addi	r8,r8,8
    437c:	e0000c26 	beq	fp,zero,43b0 <___svfprintf_internal_r+0x80c>
    4380:	d8801f17 	ldw	r2,124(sp)
    4384:	d9002784 	addi	r4,sp,158
    4388:	18c00044 	addi	r3,r3,1
    438c:	10800044 	addi	r2,r2,1
    4390:	41000015 	stw	r4,0(r8)
    4394:	01000044 	movi	r4,1
    4398:	41000115 	stw	r4,4(r8)
    439c:	d8c02015 	stw	r3,128(sp)
    43a0:	d8801f15 	stw	r2,124(sp)
    43a4:	010001c4 	movi	r4,7
    43a8:	20823816 	blt	r4,r2,4c8c <___svfprintf_internal_r+0x10e8>
    43ac:	42000204 	addi	r8,r8,8
    43b0:	d8802b17 	ldw	r2,172(sp)
    43b4:	10000c26 	beq	r2,zero,43e8 <___svfprintf_internal_r+0x844>
    43b8:	d8801f17 	ldw	r2,124(sp)
    43bc:	d9002704 	addi	r4,sp,156
    43c0:	18c00084 	addi	r3,r3,2
    43c4:	10800044 	addi	r2,r2,1
    43c8:	41000015 	stw	r4,0(r8)
    43cc:	01000084 	movi	r4,2
    43d0:	41000115 	stw	r4,4(r8)
    43d4:	d8c02015 	stw	r3,128(sp)
    43d8:	d8801f15 	stw	r2,124(sp)
    43dc:	010001c4 	movi	r4,7
    43e0:	20823216 	blt	r4,r2,4cac <___svfprintf_internal_r+0x1108>
    43e4:	42000204 	addi	r8,r8,8
    43e8:	d9003017 	ldw	r4,192(sp)
    43ec:	00802004 	movi	r2,128
    43f0:	20819726 	beq	r4,r2,4a50 <___svfprintf_internal_r+0xeac>
    43f4:	d9402917 	ldw	r5,164(sp)
    43f8:	d8802e17 	ldw	r2,184(sp)
    43fc:	28adc83a 	sub	r22,r5,r2
    4400:	05802f0e 	bge	zero,r22,44c0 <___svfprintf_internal_r+0x91c>
    4404:	07000404 	movi	fp,16
    4408:	d8801f17 	ldw	r2,124(sp)
    440c:	e583c00e 	bge	fp,r22,5310 <___svfprintf_internal_r+0x176c>
    4410:	014000b4 	movhi	r5,2
    4414:	294a0184 	addi	r5,r5,10246
    4418:	dc402915 	stw	r17,164(sp)
    441c:	d9402b15 	stw	r5,172(sp)
    4420:	b023883a 	mov	r17,r22
    4424:	050001c4 	movi	r20,7
    4428:	902d883a 	mov	r22,r18
    442c:	8025883a 	mov	r18,r16
    4430:	dc002c17 	ldw	r16,176(sp)
    4434:	00000306 	br	4444 <___svfprintf_internal_r+0x8a0>
    4438:	8c7ffc04 	addi	r17,r17,-16
    443c:	42000204 	addi	r8,r8,8
    4440:	e440110e 	bge	fp,r17,4488 <___svfprintf_internal_r+0x8e4>
    4444:	18c00404 	addi	r3,r3,16
    4448:	10800044 	addi	r2,r2,1
    444c:	45400015 	stw	r21,0(r8)
    4450:	47000115 	stw	fp,4(r8)
    4454:	d8c02015 	stw	r3,128(sp)
    4458:	d8801f15 	stw	r2,124(sp)
    445c:	a0bff60e 	bge	r20,r2,4438 <__alt_mem_onchip_memory+0xf7804438>
    4460:	d9801e04 	addi	r6,sp,120
    4464:	800b883a 	mov	r5,r16
    4468:	9809883a 	mov	r4,r19
    446c:	000bdec0 	call	bdec <__ssprint_r>
    4470:	103eb11e 	bne	r2,zero,3f38 <__alt_mem_onchip_memory+0xf7803f38>
    4474:	8c7ffc04 	addi	r17,r17,-16
    4478:	d8c02017 	ldw	r3,128(sp)
    447c:	d8801f17 	ldw	r2,124(sp)
    4480:	da000404 	addi	r8,sp,16
    4484:	e47fef16 	blt	fp,r17,4444 <__alt_mem_onchip_memory+0xf7804444>
    4488:	9021883a 	mov	r16,r18
    448c:	b025883a 	mov	r18,r22
    4490:	882d883a 	mov	r22,r17
    4494:	dc402917 	ldw	r17,164(sp)
    4498:	d9002b17 	ldw	r4,172(sp)
    449c:	1d87883a 	add	r3,r3,r22
    44a0:	10800044 	addi	r2,r2,1
    44a4:	41000015 	stw	r4,0(r8)
    44a8:	45800115 	stw	r22,4(r8)
    44ac:	d8c02015 	stw	r3,128(sp)
    44b0:	d8801f15 	stw	r2,124(sp)
    44b4:	010001c4 	movi	r4,7
    44b8:	2081ec16 	blt	r4,r2,4c6c <___svfprintf_internal_r+0x10c8>
    44bc:	42000204 	addi	r8,r8,8
    44c0:	9080400c 	andi	r2,r18,256
    44c4:	1001181e 	bne	r2,zero,4928 <___svfprintf_internal_r+0xd84>
    44c8:	d9402e17 	ldw	r5,184(sp)
    44cc:	d8801f17 	ldw	r2,124(sp)
    44d0:	44000015 	stw	r16,0(r8)
    44d4:	1947883a 	add	r3,r3,r5
    44d8:	10800044 	addi	r2,r2,1
    44dc:	41400115 	stw	r5,4(r8)
    44e0:	d8c02015 	stw	r3,128(sp)
    44e4:	d8801f15 	stw	r2,124(sp)
    44e8:	010001c4 	movi	r4,7
    44ec:	2081d116 	blt	r4,r2,4c34 <___svfprintf_internal_r+0x1090>
    44f0:	42000204 	addi	r8,r8,8
    44f4:	9480010c 	andi	r18,r18,4
    44f8:	90003226 	beq	r18,zero,45c4 <___svfprintf_internal_r+0xa20>
    44fc:	d9403117 	ldw	r5,196(sp)
    4500:	d8802a17 	ldw	r2,168(sp)
    4504:	28a1c83a 	sub	r16,r5,r2
    4508:	04002e0e 	bge	zero,r16,45c4 <___svfprintf_internal_r+0xa20>
    450c:	04400404 	movi	r17,16
    4510:	d8801f17 	ldw	r2,124(sp)
    4514:	8c04b90e 	bge	r17,r16,57fc <___svfprintf_internal_r+0x1c58>
    4518:	014000b4 	movhi	r5,2
    451c:	294a0584 	addi	r5,r5,10262
    4520:	d9403515 	stw	r5,212(sp)
    4524:	048001c4 	movi	r18,7
    4528:	dd002c17 	ldw	r20,176(sp)
    452c:	00000306 	br	453c <___svfprintf_internal_r+0x998>
    4530:	843ffc04 	addi	r16,r16,-16
    4534:	42000204 	addi	r8,r8,8
    4538:	8c00130e 	bge	r17,r16,4588 <___svfprintf_internal_r+0x9e4>
    453c:	010000b4 	movhi	r4,2
    4540:	18c00404 	addi	r3,r3,16
    4544:	10800044 	addi	r2,r2,1
    4548:	210a0584 	addi	r4,r4,10262
    454c:	41000015 	stw	r4,0(r8)
    4550:	44400115 	stw	r17,4(r8)
    4554:	d8c02015 	stw	r3,128(sp)
    4558:	d8801f15 	stw	r2,124(sp)
    455c:	90bff40e 	bge	r18,r2,4530 <__alt_mem_onchip_memory+0xf7804530>
    4560:	d9801e04 	addi	r6,sp,120
    4564:	a00b883a 	mov	r5,r20
    4568:	9809883a 	mov	r4,r19
    456c:	000bdec0 	call	bdec <__ssprint_r>
    4570:	103e711e 	bne	r2,zero,3f38 <__alt_mem_onchip_memory+0xf7803f38>
    4574:	843ffc04 	addi	r16,r16,-16
    4578:	d8c02017 	ldw	r3,128(sp)
    457c:	d8801f17 	ldw	r2,124(sp)
    4580:	da000404 	addi	r8,sp,16
    4584:	8c3fed16 	blt	r17,r16,453c <__alt_mem_onchip_memory+0xf780453c>
    4588:	d9403517 	ldw	r5,212(sp)
    458c:	1c07883a 	add	r3,r3,r16
    4590:	10800044 	addi	r2,r2,1
    4594:	41400015 	stw	r5,0(r8)
    4598:	44000115 	stw	r16,4(r8)
    459c:	d8c02015 	stw	r3,128(sp)
    45a0:	d8801f15 	stw	r2,124(sp)
    45a4:	010001c4 	movi	r4,7
    45a8:	2080060e 	bge	r4,r2,45c4 <___svfprintf_internal_r+0xa20>
    45ac:	d9402c17 	ldw	r5,176(sp)
    45b0:	d9801e04 	addi	r6,sp,120
    45b4:	9809883a 	mov	r4,r19
    45b8:	000bdec0 	call	bdec <__ssprint_r>
    45bc:	103e5e1e 	bne	r2,zero,3f38 <__alt_mem_onchip_memory+0xf7803f38>
    45c0:	d8c02017 	ldw	r3,128(sp)
    45c4:	d8803117 	ldw	r2,196(sp)
    45c8:	d9002a17 	ldw	r4,168(sp)
    45cc:	1100010e 	bge	r2,r4,45d4 <___svfprintf_internal_r+0xa30>
    45d0:	2005883a 	mov	r2,r4
    45d4:	d9402f17 	ldw	r5,188(sp)
    45d8:	288b883a 	add	r5,r5,r2
    45dc:	d9402f15 	stw	r5,188(sp)
    45e0:	18019c1e 	bne	r3,zero,4c54 <___svfprintf_internal_r+0x10b0>
    45e4:	b8800007 	ldb	r2,0(r23)
    45e8:	d8001f15 	stw	zero,124(sp)
    45ec:	da000404 	addi	r8,sp,16
    45f0:	103d991e 	bne	r2,zero,3c58 <__alt_mem_onchip_memory+0xf7803c58>
    45f4:	b821883a 	mov	r16,r23
    45f8:	003daf06 	br	3cb8 <__alt_mem_onchip_memory+0xf7803cb8>
    45fc:	18c03fcc 	andi	r3,r3,255
    4600:	1805c71e 	bne	r3,zero,5d20 <___svfprintf_internal_r+0x217c>
    4604:	94800414 	ori	r18,r18,16
    4608:	9080080c 	andi	r2,r18,32
    460c:	10020126 	beq	r2,zero,4e14 <___svfprintf_internal_r+0x1270>
    4610:	d8802d17 	ldw	r2,180(sp)
    4614:	d9002917 	ldw	r4,164(sp)
    4618:	d8002785 	stb	zero,158(sp)
    461c:	10c00204 	addi	r3,r2,8
    4620:	15000017 	ldw	r20,0(r2)
    4624:	15800117 	ldw	r22,4(r2)
    4628:	20038e16 	blt	r4,zero,5464 <___svfprintf_internal_r+0x18c0>
    462c:	013fdfc4 	movi	r4,-129
    4630:	a584b03a 	or	r2,r20,r22
    4634:	d8c02d15 	stw	r3,180(sp)
    4638:	9124703a 	and	r18,r18,r4
    463c:	0039883a 	mov	fp,zero
    4640:	103eb61e 	bne	r2,zero,411c <__alt_mem_onchip_memory+0xf780411c>
    4644:	d8802917 	ldw	r2,164(sp)
    4648:	1002c81e 	bne	r2,zero,516c <___svfprintf_internal_r+0x15c8>
    464c:	d8002915 	stw	zero,164(sp)
    4650:	d8002e15 	stw	zero,184(sp)
    4654:	dc001e04 	addi	r16,sp,120
    4658:	003efa06 	br	4244 <__alt_mem_onchip_memory+0xf7804244>
    465c:	18c03fcc 	andi	r3,r3,255
    4660:	1805ad1e 	bne	r3,zero,5d18 <___svfprintf_internal_r+0x2174>
    4664:	014000b4 	movhi	r5,2
    4668:	2949f504 	addi	r5,r5,10196
    466c:	d9403a15 	stw	r5,232(sp)
    4670:	9080080c 	andi	r2,r18,32
    4674:	10006126 	beq	r2,zero,47fc <___svfprintf_internal_r+0xc58>
    4678:	d8802d17 	ldw	r2,180(sp)
    467c:	15000017 	ldw	r20,0(r2)
    4680:	15800117 	ldw	r22,4(r2)
    4684:	10800204 	addi	r2,r2,8
    4688:	d8802d15 	stw	r2,180(sp)
    468c:	9080004c 	andi	r2,r18,1
    4690:	10018e26 	beq	r2,zero,4ccc <___svfprintf_internal_r+0x1128>
    4694:	a584b03a 	or	r2,r20,r22
    4698:	10030926 	beq	r2,zero,52c0 <___svfprintf_internal_r+0x171c>
    469c:	d8c02917 	ldw	r3,164(sp)
    46a0:	00800c04 	movi	r2,48
    46a4:	d8802705 	stb	r2,156(sp)
    46a8:	dc402745 	stb	r17,157(sp)
    46ac:	d8002785 	stb	zero,158(sp)
    46b0:	90800094 	ori	r2,r18,2
    46b4:	18048716 	blt	r3,zero,58d4 <___svfprintf_internal_r+0x1d30>
    46b8:	00bfdfc4 	movi	r2,-129
    46bc:	90a4703a 	and	r18,r18,r2
    46c0:	94800094 	ori	r18,r18,2
    46c4:	0039883a 	mov	fp,zero
    46c8:	d9003a17 	ldw	r4,232(sp)
    46cc:	dc001e04 	addi	r16,sp,120
    46d0:	a08003cc 	andi	r2,r20,15
    46d4:	b006973a 	slli	r3,r22,28
    46d8:	2085883a 	add	r2,r4,r2
    46dc:	a028d13a 	srli	r20,r20,4
    46e0:	10800003 	ldbu	r2,0(r2)
    46e4:	b02cd13a 	srli	r22,r22,4
    46e8:	843fffc4 	addi	r16,r16,-1
    46ec:	1d28b03a 	or	r20,r3,r20
    46f0:	80800005 	stb	r2,0(r16)
    46f4:	a584b03a 	or	r2,r20,r22
    46f8:	103ff51e 	bne	r2,zero,46d0 <__alt_mem_onchip_memory+0xf78046d0>
    46fc:	d8c02817 	ldw	r3,160(sp)
    4700:	1c07c83a 	sub	r3,r3,r16
    4704:	d8c02e15 	stw	r3,184(sp)
    4708:	003ece06 	br	4244 <__alt_mem_onchip_memory+0xf7804244>
    470c:	d8c02d17 	ldw	r3,180(sp)
    4710:	d9002d17 	ldw	r4,180(sp)
    4714:	d8002785 	stb	zero,158(sp)
    4718:	18800017 	ldw	r2,0(r3)
    471c:	21000104 	addi	r4,r4,4
    4720:	00c00044 	movi	r3,1
    4724:	d8c02a15 	stw	r3,168(sp)
    4728:	d8801405 	stb	r2,80(sp)
    472c:	d9002d15 	stw	r4,180(sp)
    4730:	d8c02e15 	stw	r3,184(sp)
    4734:	d8002915 	stw	zero,164(sp)
    4738:	d8003215 	stw	zero,200(sp)
    473c:	dc001404 	addi	r16,sp,80
    4740:	0039883a 	mov	fp,zero
    4744:	003ecc06 	br	4278 <__alt_mem_onchip_memory+0xf7804278>
    4748:	18c03fcc 	andi	r3,r3,255
    474c:	183e9226 	beq	r3,zero,4198 <__alt_mem_onchip_memory+0xf7804198>
    4750:	d9c02785 	stb	r7,158(sp)
    4754:	003e9006 	br	4198 <__alt_mem_onchip_memory+0xf7804198>
    4758:	00c00044 	movi	r3,1
    475c:	01c00ac4 	movi	r7,43
    4760:	bc400007 	ldb	r17,0(r23)
    4764:	003d6306 	br	3cf4 <__alt_mem_onchip_memory+0xf7803cf4>
    4768:	94800814 	ori	r18,r18,32
    476c:	bc400007 	ldb	r17,0(r23)
    4770:	003d6006 	br	3cf4 <__alt_mem_onchip_memory+0xf7803cf4>
    4774:	d8c02d17 	ldw	r3,180(sp)
    4778:	d8002785 	stb	zero,158(sp)
    477c:	1c000017 	ldw	r16,0(r3)
    4780:	1d000104 	addi	r20,r3,4
    4784:	80040f26 	beq	r16,zero,57c4 <___svfprintf_internal_r+0x1c20>
    4788:	d9002917 	ldw	r4,164(sp)
    478c:	2003dc16 	blt	r4,zero,5700 <___svfprintf_internal_r+0x1b5c>
    4790:	200d883a 	mov	r6,r4
    4794:	000b883a 	mov	r5,zero
    4798:	8009883a 	mov	r4,r16
    479c:	da003e15 	stw	r8,248(sp)
    47a0:	000a3540 	call	a354 <memchr>
    47a4:	da003e17 	ldw	r8,248(sp)
    47a8:	10045826 	beq	r2,zero,590c <___svfprintf_internal_r+0x1d68>
    47ac:	1405c83a 	sub	r2,r2,r16
    47b0:	d8802e15 	stw	r2,184(sp)
    47b4:	1003d816 	blt	r2,zero,5718 <___svfprintf_internal_r+0x1b74>
    47b8:	df002783 	ldbu	fp,158(sp)
    47bc:	d8802a15 	stw	r2,168(sp)
    47c0:	dd002d15 	stw	r20,180(sp)
    47c4:	d8002915 	stw	zero,164(sp)
    47c8:	d8003215 	stw	zero,200(sp)
    47cc:	003ea306 	br	425c <__alt_mem_onchip_memory+0xf780425c>
    47d0:	18c03fcc 	andi	r3,r3,255
    47d4:	183f8c26 	beq	r3,zero,4608 <__alt_mem_onchip_memory+0xf7804608>
    47d8:	d9c02785 	stb	r7,158(sp)
    47dc:	003f8a06 	br	4608 <__alt_mem_onchip_memory+0xf7804608>
    47e0:	18c03fcc 	andi	r3,r3,255
    47e4:	1805631e 	bne	r3,zero,5d74 <___svfprintf_internal_r+0x21d0>
    47e8:	014000b4 	movhi	r5,2
    47ec:	2949fa04 	addi	r5,r5,10216
    47f0:	d9403a15 	stw	r5,232(sp)
    47f4:	9080080c 	andi	r2,r18,32
    47f8:	103f9f1e 	bne	r2,zero,4678 <__alt_mem_onchip_memory+0xf7804678>
    47fc:	9080040c 	andi	r2,r18,16
    4800:	10029c26 	beq	r2,zero,5274 <___svfprintf_internal_r+0x16d0>
    4804:	d8c02d17 	ldw	r3,180(sp)
    4808:	002d883a 	mov	r22,zero
    480c:	1d000017 	ldw	r20,0(r3)
    4810:	18c00104 	addi	r3,r3,4
    4814:	d8c02d15 	stw	r3,180(sp)
    4818:	003f9c06 	br	468c <__alt_mem_onchip_memory+0xf780468c>
    481c:	94800054 	ori	r18,r18,1
    4820:	bc400007 	ldb	r17,0(r23)
    4824:	003d3306 	br	3cf4 <__alt_mem_onchip_memory+0xf7803cf4>
    4828:	38803fcc 	andi	r2,r7,255
    482c:	1080201c 	xori	r2,r2,128
    4830:	10bfe004 	addi	r2,r2,-128
    4834:	1002971e 	bne	r2,zero,5294 <___svfprintf_internal_r+0x16f0>
    4838:	00c00044 	movi	r3,1
    483c:	01c00804 	movi	r7,32
    4840:	bc400007 	ldb	r17,0(r23)
    4844:	003d2b06 	br	3cf4 <__alt_mem_onchip_memory+0xf7803cf4>
    4848:	18c03fcc 	andi	r3,r3,255
    484c:	183e2326 	beq	r3,zero,40dc <__alt_mem_onchip_memory+0xf78040dc>
    4850:	d9c02785 	stb	r7,158(sp)
    4854:	003e2106 	br	40dc <__alt_mem_onchip_memory+0xf78040dc>
    4858:	bc400007 	ldb	r17,0(r23)
    485c:	8a430426 	beq	r17,r9,5470 <___svfprintf_internal_r+0x18cc>
    4860:	94800414 	ori	r18,r18,16
    4864:	003d2306 	br	3cf4 <__alt_mem_onchip_memory+0xf7803cf4>
    4868:	18c03fcc 	andi	r3,r3,255
    486c:	18053f1e 	bne	r3,zero,5d6c <___svfprintf_internal_r+0x21c8>
    4870:	9080080c 	andi	r2,r18,32
    4874:	10028926 	beq	r2,zero,529c <___svfprintf_internal_r+0x16f8>
    4878:	d9402d17 	ldw	r5,180(sp)
    487c:	d9002f17 	ldw	r4,188(sp)
    4880:	28800017 	ldw	r2,0(r5)
    4884:	2007d7fa 	srai	r3,r4,31
    4888:	29400104 	addi	r5,r5,4
    488c:	d9402d15 	stw	r5,180(sp)
    4890:	11000015 	stw	r4,0(r2)
    4894:	10c00115 	stw	r3,4(r2)
    4898:	003ced06 	br	3c50 <__alt_mem_onchip_memory+0xf7803c50>
    489c:	94801014 	ori	r18,r18,64
    48a0:	bc400007 	ldb	r17,0(r23)
    48a4:	003d1306 	br	3cf4 <__alt_mem_onchip_memory+0xf7803cf4>
    48a8:	010000b4 	movhi	r4,2
    48ac:	2109fa04 	addi	r4,r4,10216
    48b0:	0039883a 	mov	fp,zero
    48b4:	d9003a15 	stw	r4,232(sp)
    48b8:	04401e04 	movi	r17,120
    48bc:	003f8206 	br	46c8 <__alt_mem_onchip_memory+0xf78046c8>
    48c0:	18c03fcc 	andi	r3,r3,255
    48c4:	1805221e 	bne	r3,zero,5d50 <___svfprintf_internal_r+0x21ac>
    48c8:	883d9526 	beq	r17,zero,3f20 <__alt_mem_onchip_memory+0xf7803f20>
    48cc:	00c00044 	movi	r3,1
    48d0:	d8c02a15 	stw	r3,168(sp)
    48d4:	dc401405 	stb	r17,80(sp)
    48d8:	d8002785 	stb	zero,158(sp)
    48dc:	003f9406 	br	4730 <__alt_mem_onchip_memory+0xf7804730>
    48e0:	010000b4 	movhi	r4,2
    48e4:	2109fa04 	addi	r4,r4,10216
    48e8:	d9003a15 	stw	r4,232(sp)
    48ec:	d8c02d15 	stw	r3,180(sp)
    48f0:	1025883a 	mov	r18,r2
    48f4:	04401e04 	movi	r17,120
    48f8:	a584b03a 	or	r2,r20,r22
    48fc:	1000fa1e 	bne	r2,zero,4ce8 <___svfprintf_internal_r+0x1144>
    4900:	0039883a 	mov	fp,zero
    4904:	00800084 	movi	r2,2
    4908:	10803fcc 	andi	r2,r2,255
    490c:	00c00044 	movi	r3,1
    4910:	10c21626 	beq	r2,r3,516c <___svfprintf_internal_r+0x15c8>
    4914:	00c00084 	movi	r3,2
    4918:	10fe301e 	bne	r2,r3,41dc <__alt_mem_onchip_memory+0xf78041dc>
    491c:	003d7606 	br	3ef8 <__alt_mem_onchip_memory+0xf7803ef8>
    4920:	d8c02017 	ldw	r3,128(sp)
    4924:	003e9506 	br	437c <__alt_mem_onchip_memory+0xf780437c>
    4928:	00801944 	movi	r2,101
    492c:	14407c0e 	bge	r2,r17,4b20 <___svfprintf_internal_r+0xf7c>
    4930:	d9003617 	ldw	r4,216(sp)
    4934:	d9403717 	ldw	r5,220(sp)
    4938:	000d883a 	mov	r6,zero
    493c:	000f883a 	mov	r7,zero
    4940:	d8c03d15 	stw	r3,244(sp)
    4944:	da003e15 	stw	r8,248(sp)
    4948:	0010c440 	call	10c44 <__eqdf2>
    494c:	d8c03d17 	ldw	r3,244(sp)
    4950:	da003e17 	ldw	r8,248(sp)
    4954:	1000f51e 	bne	r2,zero,4d2c <___svfprintf_internal_r+0x1188>
    4958:	d8801f17 	ldw	r2,124(sp)
    495c:	010000b4 	movhi	r4,2
    4960:	210a0104 	addi	r4,r4,10244
    4964:	18c00044 	addi	r3,r3,1
    4968:	10800044 	addi	r2,r2,1
    496c:	41000015 	stw	r4,0(r8)
    4970:	01000044 	movi	r4,1
    4974:	41000115 	stw	r4,4(r8)
    4978:	d8c02015 	stw	r3,128(sp)
    497c:	d8801f15 	stw	r2,124(sp)
    4980:	010001c4 	movi	r4,7
    4984:	20826616 	blt	r4,r2,5320 <___svfprintf_internal_r+0x177c>
    4988:	42000204 	addi	r8,r8,8
    498c:	d8802617 	ldw	r2,152(sp)
    4990:	d9403317 	ldw	r5,204(sp)
    4994:	11400216 	blt	r2,r5,49a0 <___svfprintf_internal_r+0xdfc>
    4998:	9080004c 	andi	r2,r18,1
    499c:	103ed526 	beq	r2,zero,44f4 <__alt_mem_onchip_memory+0xf78044f4>
    49a0:	d8803817 	ldw	r2,224(sp)
    49a4:	d9003417 	ldw	r4,208(sp)
    49a8:	d9403817 	ldw	r5,224(sp)
    49ac:	1887883a 	add	r3,r3,r2
    49b0:	d8801f17 	ldw	r2,124(sp)
    49b4:	41000015 	stw	r4,0(r8)
    49b8:	41400115 	stw	r5,4(r8)
    49bc:	10800044 	addi	r2,r2,1
    49c0:	d8c02015 	stw	r3,128(sp)
    49c4:	d8801f15 	stw	r2,124(sp)
    49c8:	010001c4 	movi	r4,7
    49cc:	2082af16 	blt	r4,r2,548c <___svfprintf_internal_r+0x18e8>
    49d0:	42000204 	addi	r8,r8,8
    49d4:	d8803317 	ldw	r2,204(sp)
    49d8:	143fffc4 	addi	r16,r2,-1
    49dc:	043ec50e 	bge	zero,r16,44f4 <__alt_mem_onchip_memory+0xf78044f4>
    49e0:	04400404 	movi	r17,16
    49e4:	d8801f17 	ldw	r2,124(sp)
    49e8:	8c00860e 	bge	r17,r16,4c04 <___svfprintf_internal_r+0x1060>
    49ec:	014000b4 	movhi	r5,2
    49f0:	294a0184 	addi	r5,r5,10246
    49f4:	d9402b15 	stw	r5,172(sp)
    49f8:	058001c4 	movi	r22,7
    49fc:	dd002c17 	ldw	r20,176(sp)
    4a00:	00000306 	br	4a10 <___svfprintf_internal_r+0xe6c>
    4a04:	42000204 	addi	r8,r8,8
    4a08:	843ffc04 	addi	r16,r16,-16
    4a0c:	8c00800e 	bge	r17,r16,4c10 <___svfprintf_internal_r+0x106c>
    4a10:	18c00404 	addi	r3,r3,16
    4a14:	10800044 	addi	r2,r2,1
    4a18:	45400015 	stw	r21,0(r8)
    4a1c:	44400115 	stw	r17,4(r8)
    4a20:	d8c02015 	stw	r3,128(sp)
    4a24:	d8801f15 	stw	r2,124(sp)
    4a28:	b0bff60e 	bge	r22,r2,4a04 <__alt_mem_onchip_memory+0xf7804a04>
    4a2c:	d9801e04 	addi	r6,sp,120
    4a30:	a00b883a 	mov	r5,r20
    4a34:	9809883a 	mov	r4,r19
    4a38:	000bdec0 	call	bdec <__ssprint_r>
    4a3c:	103d3e1e 	bne	r2,zero,3f38 <__alt_mem_onchip_memory+0xf7803f38>
    4a40:	d8c02017 	ldw	r3,128(sp)
    4a44:	d8801f17 	ldw	r2,124(sp)
    4a48:	da000404 	addi	r8,sp,16
    4a4c:	003fee06 	br	4a08 <__alt_mem_onchip_memory+0xf7804a08>
    4a50:	d9403117 	ldw	r5,196(sp)
    4a54:	d8802a17 	ldw	r2,168(sp)
